; ModuleID = 'op.ll'
source_filename = "/root/InfiniGraph/InfiniCore/src/infiniop/ops/add_rms_norm/nvidia/add_rms_norm_nvidia.cu"
target datalayout = "e-p:64:64-p1:64:64-p2:32:32-p3:32:32-p4:64:64-p5:32:32-p6:32:32-i64:64-v16:16-v24:32-v32:32-v48:64-v96:128-v192:256-v256:256-v512:512-v1024:1024-v2048:2048-n32:64-S32-A5"
target triple = "bi-iluvatar-ilurt"

%"struct.cub::BlockReduce<float, 512>::TempStorage" = type { %"struct.cub::Uninitialized" }
%"struct.cub::Uninitialized" = type { [11 x i32] }
%"struct.cub::BlockReduce<float, 1024>::TempStorage" = type { %"struct.cub::Uninitialized.9" }
%"struct.cub::Uninitialized.9" = type { [21 x i32] }
%"struct.cub::BlockReduce<float, 2048>::TempStorage" = type { %"struct.cub::Uninitialized.23" }
%"struct.cub::Uninitialized.23" = type { [41 x i32] }
%"struct.cub::BlockReduce<float, 4096>::TempStorage" = type { %"struct.cub::Uninitialized.45" }
%"struct.cub::Uninitialized.45" = type { [81 x i32] }
%struct.__half = type { i16 }
%"struct.cub::BlockReduceWarpReductions<float, 512, 1, 1, 300>::_TempStorage" = type { [8 x %"struct.cub::NullType"], [8 x float], float }
%"struct.cub::NullType" = type { i8 }
%struct.__nv_bfloat16 = type { i16 }
%"struct.cub::BlockReduceWarpReductions<float, 1024, 1, 1, 300>::_TempStorage" = type { [16 x %"struct.cub::NullType"], [16 x float], float }
%"struct.cub::BlockReduceWarpReductions<float, 2048, 1, 1, 300>::_TempStorage" = type { [32 x %"struct.cub::NullType"], [32 x float], float }
%"struct.cub::BlockReduceWarpReductions<float, 4096, 1, 1, 300>::_TempStorage" = type { [64 x %"struct.cub::NullType"], [64 x float], float }

$_Z17add_rmsnormKernelILj512Ef6__halfS0_EvPT1_S2_llllPKS1_llS4_llPKT2_mmf = comdat any

$_Z17add_rmsnormKernelILj512Ef6__half13__nv_bfloat16EvPT1_S3_llllPKS2_llS5_llPKT2_mmf = comdat any

$_Z17add_rmsnormKernelILj512Ef6__halffEvPT1_S2_llllPKS1_llS4_llPKT2_mmf = comdat any

$_Z17add_rmsnormKernelILj512Ef13__nv_bfloat16S0_EvPT1_S2_llllPKS1_llS4_llPKT2_mmf = comdat any

$_Z17add_rmsnormKernelILj512Ef13__nv_bfloat166__halfEvPT1_S3_llllPKS2_llS5_llPKT2_mmf = comdat any

$_Z17add_rmsnormKernelILj512Ef13__nv_bfloat16fEvPT1_S2_llllPKS1_llS4_llPKT2_mmf = comdat any

$_Z17add_rmsnormKernelILj512EfffEvPT1_S1_llllPKS0_llS3_llPKT2_mmf = comdat any

$_Z17add_rmsnormKernelILj1024Ef6__halfS0_EvPT1_S2_llllPKS1_llS4_llPKT2_mmf = comdat any

$_Z17add_rmsnormKernelILj1024Ef6__half13__nv_bfloat16EvPT1_S3_llllPKS2_llS5_llPKT2_mmf = comdat any

$_Z17add_rmsnormKernelILj1024Ef6__halffEvPT1_S2_llllPKS1_llS4_llPKT2_mmf = comdat any

$_Z17add_rmsnormKernelILj1024Ef13__nv_bfloat16S0_EvPT1_S2_llllPKS1_llS4_llPKT2_mmf = comdat any

$_Z17add_rmsnormKernelILj1024Ef13__nv_bfloat166__halfEvPT1_S3_llllPKS2_llS5_llPKT2_mmf = comdat any

$_Z17add_rmsnormKernelILj1024Ef13__nv_bfloat16fEvPT1_S2_llllPKS1_llS4_llPKT2_mmf = comdat any

$_Z17add_rmsnormKernelILj1024EfffEvPT1_S1_llllPKS0_llS3_llPKT2_mmf = comdat any

$_Z17add_rmsnormKernelILj2048Ef6__halfS0_EvPT1_S2_llllPKS1_llS4_llPKT2_mmf = comdat any

$_Z17add_rmsnormKernelILj2048Ef6__half13__nv_bfloat16EvPT1_S3_llllPKS2_llS5_llPKT2_mmf = comdat any

$_Z17add_rmsnormKernelILj2048Ef6__halffEvPT1_S2_llllPKS1_llS4_llPKT2_mmf = comdat any

$_Z17add_rmsnormKernelILj2048Ef13__nv_bfloat16S0_EvPT1_S2_llllPKS1_llS4_llPKT2_mmf = comdat any

$_Z17add_rmsnormKernelILj2048Ef13__nv_bfloat166__halfEvPT1_S3_llllPKS2_llS5_llPKT2_mmf = comdat any

$_Z17add_rmsnormKernelILj2048Ef13__nv_bfloat16fEvPT1_S2_llllPKS1_llS4_llPKT2_mmf = comdat any

$_Z17add_rmsnormKernelILj2048EfffEvPT1_S1_llllPKS0_llS3_llPKT2_mmf = comdat any

$_Z17add_rmsnormKernelILj4096Ef6__halfS0_EvPT1_S2_llllPKS1_llS4_llPKT2_mmf = comdat any

$_Z17add_rmsnormKernelILj4096Ef6__half13__nv_bfloat16EvPT1_S3_llllPKS2_llS5_llPKT2_mmf = comdat any

$_Z17add_rmsnormKernelILj4096Ef6__halffEvPT1_S2_llllPKS1_llS4_llPKT2_mmf = comdat any

$_Z17add_rmsnormKernelILj4096Ef13__nv_bfloat16S0_EvPT1_S2_llllPKS1_llS4_llPKT2_mmf = comdat any

$_Z17add_rmsnormKernelILj4096Ef13__nv_bfloat166__halfEvPT1_S3_llllPKS2_llS5_llPKT2_mmf = comdat any

$_Z17add_rmsnormKernelILj4096Ef13__nv_bfloat16fEvPT1_S2_llllPKS1_llS4_llPKT2_mmf = comdat any

$_Z17add_rmsnormKernelILj4096EfffEvPT1_S1_llllPKS0_llS3_llPKT2_mmf = comdat any

$_ZZ16add_rmsnormBlockILj512Ef6__halfS0_EvPT1_S2_llllPKS1_llS4_llPKT2_mmfE12temp_storage = comdat any

$_ZZ16add_rmsnormBlockILj512Ef6__halfS0_EvPT1_S2_llllPKS1_llS4_llPKT2_mmfE3rms = comdat any

$_ZZ16add_rmsnormBlockILj512Ef6__half13__nv_bfloat16EvPT1_S3_llllPKS2_llS5_llPKT2_mmfE12temp_storage = comdat any

$_ZZ16add_rmsnormBlockILj512Ef6__half13__nv_bfloat16EvPT1_S3_llllPKS2_llS5_llPKT2_mmfE3rms = comdat any

$_ZZ16add_rmsnormBlockILj512Ef6__halffEvPT1_S2_llllPKS1_llS4_llPKT2_mmfE12temp_storage = comdat any

$_ZZ16add_rmsnormBlockILj512Ef6__halffEvPT1_S2_llllPKS1_llS4_llPKT2_mmfE3rms = comdat any

$_ZZ16add_rmsnormBlockILj512Ef13__nv_bfloat16S0_EvPT1_S2_llllPKS1_llS4_llPKT2_mmfE12temp_storage = comdat any

$_ZZ16add_rmsnormBlockILj512Ef13__nv_bfloat16S0_EvPT1_S2_llllPKS1_llS4_llPKT2_mmfE3rms = comdat any

$_ZZ16add_rmsnormBlockILj512Ef13__nv_bfloat166__halfEvPT1_S3_llllPKS2_llS5_llPKT2_mmfE12temp_storage = comdat any

$_ZZ16add_rmsnormBlockILj512Ef13__nv_bfloat166__halfEvPT1_S3_llllPKS2_llS5_llPKT2_mmfE3rms = comdat any

$_ZZ16add_rmsnormBlockILj512Ef13__nv_bfloat16fEvPT1_S2_llllPKS1_llS4_llPKT2_mmfE12temp_storage = comdat any

$_ZZ16add_rmsnormBlockILj512Ef13__nv_bfloat16fEvPT1_S2_llllPKS1_llS4_llPKT2_mmfE3rms = comdat any

$_ZZ16add_rmsnormBlockILj512EfffEvPT1_S1_llllPKS0_llS3_llPKT2_mmfE12temp_storage = comdat any

$_ZZ16add_rmsnormBlockILj512EfffEvPT1_S1_llllPKS0_llS3_llPKT2_mmfE3rms = comdat any

$_ZZ16add_rmsnormBlockILj1024Ef6__halfS0_EvPT1_S2_llllPKS1_llS4_llPKT2_mmfE12temp_storage = comdat any

$_ZZ16add_rmsnormBlockILj1024Ef6__halfS0_EvPT1_S2_llllPKS1_llS4_llPKT2_mmfE3rms = comdat any

$_ZZ16add_rmsnormBlockILj1024Ef6__half13__nv_bfloat16EvPT1_S3_llllPKS2_llS5_llPKT2_mmfE12temp_storage = comdat any

$_ZZ16add_rmsnormBlockILj1024Ef6__half13__nv_bfloat16EvPT1_S3_llllPKS2_llS5_llPKT2_mmfE3rms = comdat any

$_ZZ16add_rmsnormBlockILj1024Ef6__halffEvPT1_S2_llllPKS1_llS4_llPKT2_mmfE12temp_storage = comdat any

$_ZZ16add_rmsnormBlockILj1024Ef6__halffEvPT1_S2_llllPKS1_llS4_llPKT2_mmfE3rms = comdat any

$_ZZ16add_rmsnormBlockILj1024Ef13__nv_bfloat16S0_EvPT1_S2_llllPKS1_llS4_llPKT2_mmfE12temp_storage = comdat any

$_ZZ16add_rmsnormBlockILj1024Ef13__nv_bfloat16S0_EvPT1_S2_llllPKS1_llS4_llPKT2_mmfE3rms = comdat any

$_ZZ16add_rmsnormBlockILj1024Ef13__nv_bfloat166__halfEvPT1_S3_llllPKS2_llS5_llPKT2_mmfE12temp_storage = comdat any

$_ZZ16add_rmsnormBlockILj1024Ef13__nv_bfloat166__halfEvPT1_S3_llllPKS2_llS5_llPKT2_mmfE3rms = comdat any

$_ZZ16add_rmsnormBlockILj1024Ef13__nv_bfloat16fEvPT1_S2_llllPKS1_llS4_llPKT2_mmfE12temp_storage = comdat any

$_ZZ16add_rmsnormBlockILj1024Ef13__nv_bfloat16fEvPT1_S2_llllPKS1_llS4_llPKT2_mmfE3rms = comdat any

$_ZZ16add_rmsnormBlockILj1024EfffEvPT1_S1_llllPKS0_llS3_llPKT2_mmfE12temp_storage = comdat any

$_ZZ16add_rmsnormBlockILj1024EfffEvPT1_S1_llllPKS0_llS3_llPKT2_mmfE3rms = comdat any

$_ZZ16add_rmsnormBlockILj2048Ef6__halfS0_EvPT1_S2_llllPKS1_llS4_llPKT2_mmfE12temp_storage = comdat any

$_ZZ16add_rmsnormBlockILj2048Ef6__halfS0_EvPT1_S2_llllPKS1_llS4_llPKT2_mmfE3rms = comdat any

$_ZZ16add_rmsnormBlockILj2048Ef6__half13__nv_bfloat16EvPT1_S3_llllPKS2_llS5_llPKT2_mmfE12temp_storage = comdat any

$_ZZ16add_rmsnormBlockILj2048Ef6__half13__nv_bfloat16EvPT1_S3_llllPKS2_llS5_llPKT2_mmfE3rms = comdat any

$_ZZ16add_rmsnormBlockILj2048Ef6__halffEvPT1_S2_llllPKS1_llS4_llPKT2_mmfE12temp_storage = comdat any

$_ZZ16add_rmsnormBlockILj2048Ef6__halffEvPT1_S2_llllPKS1_llS4_llPKT2_mmfE3rms = comdat any

$_ZZ16add_rmsnormBlockILj2048Ef13__nv_bfloat16S0_EvPT1_S2_llllPKS1_llS4_llPKT2_mmfE12temp_storage = comdat any

$_ZZ16add_rmsnormBlockILj2048Ef13__nv_bfloat16S0_EvPT1_S2_llllPKS1_llS4_llPKT2_mmfE3rms = comdat any

$_ZZ16add_rmsnormBlockILj2048Ef13__nv_bfloat166__halfEvPT1_S3_llllPKS2_llS5_llPKT2_mmfE12temp_storage = comdat any

$_ZZ16add_rmsnormBlockILj2048Ef13__nv_bfloat166__halfEvPT1_S3_llllPKS2_llS5_llPKT2_mmfE3rms = comdat any

$_ZZ16add_rmsnormBlockILj2048Ef13__nv_bfloat16fEvPT1_S2_llllPKS1_llS4_llPKT2_mmfE12temp_storage = comdat any

$_ZZ16add_rmsnormBlockILj2048Ef13__nv_bfloat16fEvPT1_S2_llllPKS1_llS4_llPKT2_mmfE3rms = comdat any

$_ZZ16add_rmsnormBlockILj2048EfffEvPT1_S1_llllPKS0_llS3_llPKT2_mmfE12temp_storage = comdat any

$_ZZ16add_rmsnormBlockILj2048EfffEvPT1_S1_llllPKS0_llS3_llPKT2_mmfE3rms = comdat any

$_ZZ16add_rmsnormBlockILj4096Ef6__halfS0_EvPT1_S2_llllPKS1_llS4_llPKT2_mmfE12temp_storage = comdat any

$_ZZ16add_rmsnormBlockILj4096Ef6__halfS0_EvPT1_S2_llllPKS1_llS4_llPKT2_mmfE3rms = comdat any

$_ZZ16add_rmsnormBlockILj4096Ef6__half13__nv_bfloat16EvPT1_S3_llllPKS2_llS5_llPKT2_mmfE12temp_storage = comdat any

$_ZZ16add_rmsnormBlockILj4096Ef6__half13__nv_bfloat16EvPT1_S3_llllPKS2_llS5_llPKT2_mmfE3rms = comdat any

$_ZZ16add_rmsnormBlockILj4096Ef6__halffEvPT1_S2_llllPKS1_llS4_llPKT2_mmfE12temp_storage = comdat any

$_ZZ16add_rmsnormBlockILj4096Ef6__halffEvPT1_S2_llllPKS1_llS4_llPKT2_mmfE3rms = comdat any

$_ZZ16add_rmsnormBlockILj4096Ef13__nv_bfloat16S0_EvPT1_S2_llllPKS1_llS4_llPKT2_mmfE12temp_storage = comdat any

$_ZZ16add_rmsnormBlockILj4096Ef13__nv_bfloat16S0_EvPT1_S2_llllPKS1_llS4_llPKT2_mmfE3rms = comdat any

$_ZZ16add_rmsnormBlockILj4096Ef13__nv_bfloat166__halfEvPT1_S3_llllPKS2_llS5_llPKT2_mmfE12temp_storage = comdat any

$_ZZ16add_rmsnormBlockILj4096Ef13__nv_bfloat166__halfEvPT1_S3_llllPKS2_llS5_llPKT2_mmfE3rms = comdat any

$_ZZ16add_rmsnormBlockILj4096Ef13__nv_bfloat16fEvPT1_S2_llllPKS1_llS4_llPKT2_mmfE12temp_storage = comdat any

$_ZZ16add_rmsnormBlockILj4096Ef13__nv_bfloat16fEvPT1_S2_llllPKS1_llS4_llPKT2_mmfE3rms = comdat any

$_ZZ16add_rmsnormBlockILj4096EfffEvPT1_S1_llllPKS0_llS3_llPKT2_mmfE12temp_storage = comdat any

$_ZZ16add_rmsnormBlockILj4096EfffEvPT1_S1_llllPKS0_llS3_llPKT2_mmfE3rms = comdat any

@_ZZ16add_rmsnormBlockILj512Ef6__halfS0_EvPT1_S2_llllPKS1_llS4_llPKT2_mmfE12temp_storage = linkonce_odr dso_local local_unnamed_addr addrspace(3) global %"struct.cub::BlockReduce<float, 512>::TempStorage" undef, comdat, align 4
@_ZZ16add_rmsnormBlockILj512Ef6__halfS0_EvPT1_S2_llllPKS1_llS4_llPKT2_mmfE3rms = linkonce_odr dso_local local_unnamed_addr addrspace(3) global float undef, comdat, align 4
@_ZZ16add_rmsnormBlockILj512Ef6__half13__nv_bfloat16EvPT1_S3_llllPKS2_llS5_llPKT2_mmfE12temp_storage = linkonce_odr dso_local local_unnamed_addr addrspace(3) global %"struct.cub::BlockReduce<float, 512>::TempStorage" undef, comdat, align 4
@_ZZ16add_rmsnormBlockILj512Ef6__half13__nv_bfloat16EvPT1_S3_llllPKS2_llS5_llPKT2_mmfE3rms = linkonce_odr dso_local local_unnamed_addr addrspace(3) global float undef, comdat, align 4
@_ZZ16add_rmsnormBlockILj512Ef6__halffEvPT1_S2_llllPKS1_llS4_llPKT2_mmfE12temp_storage = linkonce_odr dso_local local_unnamed_addr addrspace(3) global %"struct.cub::BlockReduce<float, 512>::TempStorage" undef, comdat, align 4
@_ZZ16add_rmsnormBlockILj512Ef6__halffEvPT1_S2_llllPKS1_llS4_llPKT2_mmfE3rms = linkonce_odr dso_local local_unnamed_addr addrspace(3) global float undef, comdat, align 4
@_ZZ16add_rmsnormBlockILj512Ef13__nv_bfloat16S0_EvPT1_S2_llllPKS1_llS4_llPKT2_mmfE12temp_storage = linkonce_odr dso_local local_unnamed_addr addrspace(3) global %"struct.cub::BlockReduce<float, 512>::TempStorage" undef, comdat, align 4
@_ZZ16add_rmsnormBlockILj512Ef13__nv_bfloat16S0_EvPT1_S2_llllPKS1_llS4_llPKT2_mmfE3rms = linkonce_odr dso_local local_unnamed_addr addrspace(3) global float undef, comdat, align 4
@_ZZ16add_rmsnormBlockILj512Ef13__nv_bfloat166__halfEvPT1_S3_llllPKS2_llS5_llPKT2_mmfE12temp_storage = linkonce_odr dso_local local_unnamed_addr addrspace(3) global %"struct.cub::BlockReduce<float, 512>::TempStorage" undef, comdat, align 4
@_ZZ16add_rmsnormBlockILj512Ef13__nv_bfloat166__halfEvPT1_S3_llllPKS2_llS5_llPKT2_mmfE3rms = linkonce_odr dso_local local_unnamed_addr addrspace(3) global float undef, comdat, align 4
@_ZZ16add_rmsnormBlockILj512Ef13__nv_bfloat16fEvPT1_S2_llllPKS1_llS4_llPKT2_mmfE12temp_storage = linkonce_odr dso_local local_unnamed_addr addrspace(3) global %"struct.cub::BlockReduce<float, 512>::TempStorage" undef, comdat, align 4
@_ZZ16add_rmsnormBlockILj512Ef13__nv_bfloat16fEvPT1_S2_llllPKS1_llS4_llPKT2_mmfE3rms = linkonce_odr dso_local local_unnamed_addr addrspace(3) global float undef, comdat, align 4
@_ZZ16add_rmsnormBlockILj512EfffEvPT1_S1_llllPKS0_llS3_llPKT2_mmfE12temp_storage = linkonce_odr dso_local local_unnamed_addr addrspace(3) global %"struct.cub::BlockReduce<float, 512>::TempStorage" undef, comdat, align 4
@_ZZ16add_rmsnormBlockILj512EfffEvPT1_S1_llllPKS0_llS3_llPKT2_mmfE3rms = linkonce_odr dso_local local_unnamed_addr addrspace(3) global float undef, comdat, align 4
@_ZZ16add_rmsnormBlockILj1024Ef6__halfS0_EvPT1_S2_llllPKS1_llS4_llPKT2_mmfE12temp_storage = linkonce_odr dso_local local_unnamed_addr addrspace(3) global %"struct.cub::BlockReduce<float, 1024>::TempStorage" undef, comdat, align 4
@_ZZ16add_rmsnormBlockILj1024Ef6__halfS0_EvPT1_S2_llllPKS1_llS4_llPKT2_mmfE3rms = linkonce_odr dso_local local_unnamed_addr addrspace(3) global float undef, comdat, align 4
@_ZZ16add_rmsnormBlockILj1024Ef6__half13__nv_bfloat16EvPT1_S3_llllPKS2_llS5_llPKT2_mmfE12temp_storage = linkonce_odr dso_local local_unnamed_addr addrspace(3) global %"struct.cub::BlockReduce<float, 1024>::TempStorage" undef, comdat, align 4
@_ZZ16add_rmsnormBlockILj1024Ef6__half13__nv_bfloat16EvPT1_S3_llllPKS2_llS5_llPKT2_mmfE3rms = linkonce_odr dso_local local_unnamed_addr addrspace(3) global float undef, comdat, align 4
@_ZZ16add_rmsnormBlockILj1024Ef6__halffEvPT1_S2_llllPKS1_llS4_llPKT2_mmfE12temp_storage = linkonce_odr dso_local local_unnamed_addr addrspace(3) global %"struct.cub::BlockReduce<float, 1024>::TempStorage" undef, comdat, align 4
@_ZZ16add_rmsnormBlockILj1024Ef6__halffEvPT1_S2_llllPKS1_llS4_llPKT2_mmfE3rms = linkonce_odr dso_local local_unnamed_addr addrspace(3) global float undef, comdat, align 4
@_ZZ16add_rmsnormBlockILj1024Ef13__nv_bfloat16S0_EvPT1_S2_llllPKS1_llS4_llPKT2_mmfE12temp_storage = linkonce_odr dso_local local_unnamed_addr addrspace(3) global %"struct.cub::BlockReduce<float, 1024>::TempStorage" undef, comdat, align 4
@_ZZ16add_rmsnormBlockILj1024Ef13__nv_bfloat16S0_EvPT1_S2_llllPKS1_llS4_llPKT2_mmfE3rms = linkonce_odr dso_local local_unnamed_addr addrspace(3) global float undef, comdat, align 4
@_ZZ16add_rmsnormBlockILj1024Ef13__nv_bfloat166__halfEvPT1_S3_llllPKS2_llS5_llPKT2_mmfE12temp_storage = linkonce_odr dso_local local_unnamed_addr addrspace(3) global %"struct.cub::BlockReduce<float, 1024>::TempStorage" undef, comdat, align 4
@_ZZ16add_rmsnormBlockILj1024Ef13__nv_bfloat166__halfEvPT1_S3_llllPKS2_llS5_llPKT2_mmfE3rms = linkonce_odr dso_local local_unnamed_addr addrspace(3) global float undef, comdat, align 4
@_ZZ16add_rmsnormBlockILj1024Ef13__nv_bfloat16fEvPT1_S2_llllPKS1_llS4_llPKT2_mmfE12temp_storage = linkonce_odr dso_local local_unnamed_addr addrspace(3) global %"struct.cub::BlockReduce<float, 1024>::TempStorage" undef, comdat, align 4
@_ZZ16add_rmsnormBlockILj1024Ef13__nv_bfloat16fEvPT1_S2_llllPKS1_llS4_llPKT2_mmfE3rms = linkonce_odr dso_local local_unnamed_addr addrspace(3) global float undef, comdat, align 4
@_ZZ16add_rmsnormBlockILj1024EfffEvPT1_S1_llllPKS0_llS3_llPKT2_mmfE12temp_storage = linkonce_odr dso_local local_unnamed_addr addrspace(3) global %"struct.cub::BlockReduce<float, 1024>::TempStorage" undef, comdat, align 4
@_ZZ16add_rmsnormBlockILj1024EfffEvPT1_S1_llllPKS0_llS3_llPKT2_mmfE3rms = linkonce_odr dso_local local_unnamed_addr addrspace(3) global float undef, comdat, align 4
@_ZZ16add_rmsnormBlockILj2048Ef6__halfS0_EvPT1_S2_llllPKS1_llS4_llPKT2_mmfE12temp_storage = linkonce_odr dso_local local_unnamed_addr addrspace(3) global %"struct.cub::BlockReduce<float, 2048>::TempStorage" undef, comdat, align 4
@_ZZ16add_rmsnormBlockILj2048Ef6__halfS0_EvPT1_S2_llllPKS1_llS4_llPKT2_mmfE3rms = linkonce_odr dso_local local_unnamed_addr addrspace(3) global float undef, comdat, align 4
@_ZZ16add_rmsnormBlockILj2048Ef6__half13__nv_bfloat16EvPT1_S3_llllPKS2_llS5_llPKT2_mmfE12temp_storage = linkonce_odr dso_local local_unnamed_addr addrspace(3) global %"struct.cub::BlockReduce<float, 2048>::TempStorage" undef, comdat, align 4
@_ZZ16add_rmsnormBlockILj2048Ef6__half13__nv_bfloat16EvPT1_S3_llllPKS2_llS5_llPKT2_mmfE3rms = linkonce_odr dso_local local_unnamed_addr addrspace(3) global float undef, comdat, align 4
@_ZZ16add_rmsnormBlockILj2048Ef6__halffEvPT1_S2_llllPKS1_llS4_llPKT2_mmfE12temp_storage = linkonce_odr dso_local local_unnamed_addr addrspace(3) global %"struct.cub::BlockReduce<float, 2048>::TempStorage" undef, comdat, align 4
@_ZZ16add_rmsnormBlockILj2048Ef6__halffEvPT1_S2_llllPKS1_llS4_llPKT2_mmfE3rms = linkonce_odr dso_local local_unnamed_addr addrspace(3) global float undef, comdat, align 4
@_ZZ16add_rmsnormBlockILj2048Ef13__nv_bfloat16S0_EvPT1_S2_llllPKS1_llS4_llPKT2_mmfE12temp_storage = linkonce_odr dso_local local_unnamed_addr addrspace(3) global %"struct.cub::BlockReduce<float, 2048>::TempStorage" undef, comdat, align 4
@_ZZ16add_rmsnormBlockILj2048Ef13__nv_bfloat16S0_EvPT1_S2_llllPKS1_llS4_llPKT2_mmfE3rms = linkonce_odr dso_local local_unnamed_addr addrspace(3) global float undef, comdat, align 4
@_ZZ16add_rmsnormBlockILj2048Ef13__nv_bfloat166__halfEvPT1_S3_llllPKS2_llS5_llPKT2_mmfE12temp_storage = linkonce_odr dso_local local_unnamed_addr addrspace(3) global %"struct.cub::BlockReduce<float, 2048>::TempStorage" undef, comdat, align 4
@_ZZ16add_rmsnormBlockILj2048Ef13__nv_bfloat166__halfEvPT1_S3_llllPKS2_llS5_llPKT2_mmfE3rms = linkonce_odr dso_local local_unnamed_addr addrspace(3) global float undef, comdat, align 4
@_ZZ16add_rmsnormBlockILj2048Ef13__nv_bfloat16fEvPT1_S2_llllPKS1_llS4_llPKT2_mmfE12temp_storage = linkonce_odr dso_local local_unnamed_addr addrspace(3) global %"struct.cub::BlockReduce<float, 2048>::TempStorage" undef, comdat, align 4
@_ZZ16add_rmsnormBlockILj2048Ef13__nv_bfloat16fEvPT1_S2_llllPKS1_llS4_llPKT2_mmfE3rms = linkonce_odr dso_local local_unnamed_addr addrspace(3) global float undef, comdat, align 4
@_ZZ16add_rmsnormBlockILj2048EfffEvPT1_S1_llllPKS0_llS3_llPKT2_mmfE12temp_storage = linkonce_odr dso_local local_unnamed_addr addrspace(3) global %"struct.cub::BlockReduce<float, 2048>::TempStorage" undef, comdat, align 4
@_ZZ16add_rmsnormBlockILj2048EfffEvPT1_S1_llllPKS0_llS3_llPKT2_mmfE3rms = linkonce_odr dso_local local_unnamed_addr addrspace(3) global float undef, comdat, align 4
@_ZZ16add_rmsnormBlockILj4096Ef6__halfS0_EvPT1_S2_llllPKS1_llS4_llPKT2_mmfE12temp_storage = linkonce_odr dso_local local_unnamed_addr addrspace(3) global %"struct.cub::BlockReduce<float, 4096>::TempStorage" undef, comdat, align 4
@_ZZ16add_rmsnormBlockILj4096Ef6__halfS0_EvPT1_S2_llllPKS1_llS4_llPKT2_mmfE3rms = linkonce_odr dso_local local_unnamed_addr addrspace(3) global float undef, comdat, align 4
@_ZZ16add_rmsnormBlockILj4096Ef6__half13__nv_bfloat16EvPT1_S3_llllPKS2_llS5_llPKT2_mmfE12temp_storage = linkonce_odr dso_local local_unnamed_addr addrspace(3) global %"struct.cub::BlockReduce<float, 4096>::TempStorage" undef, comdat, align 4
@_ZZ16add_rmsnormBlockILj4096Ef6__half13__nv_bfloat16EvPT1_S3_llllPKS2_llS5_llPKT2_mmfE3rms = linkonce_odr dso_local local_unnamed_addr addrspace(3) global float undef, comdat, align 4
@_ZZ16add_rmsnormBlockILj4096Ef6__halffEvPT1_S2_llllPKS1_llS4_llPKT2_mmfE12temp_storage = linkonce_odr dso_local local_unnamed_addr addrspace(3) global %"struct.cub::BlockReduce<float, 4096>::TempStorage" undef, comdat, align 4
@_ZZ16add_rmsnormBlockILj4096Ef6__halffEvPT1_S2_llllPKS1_llS4_llPKT2_mmfE3rms = linkonce_odr dso_local local_unnamed_addr addrspace(3) global float undef, comdat, align 4
@_ZZ16add_rmsnormBlockILj4096Ef13__nv_bfloat16S0_EvPT1_S2_llllPKS1_llS4_llPKT2_mmfE12temp_storage = linkonce_odr dso_local local_unnamed_addr addrspace(3) global %"struct.cub::BlockReduce<float, 4096>::TempStorage" undef, comdat, align 4
@_ZZ16add_rmsnormBlockILj4096Ef13__nv_bfloat16S0_EvPT1_S2_llllPKS1_llS4_llPKT2_mmfE3rms = linkonce_odr dso_local local_unnamed_addr addrspace(3) global float undef, comdat, align 4
@_ZZ16add_rmsnormBlockILj4096Ef13__nv_bfloat166__halfEvPT1_S3_llllPKS2_llS5_llPKT2_mmfE12temp_storage = linkonce_odr dso_local local_unnamed_addr addrspace(3) global %"struct.cub::BlockReduce<float, 4096>::TempStorage" undef, comdat, align 4
@_ZZ16add_rmsnormBlockILj4096Ef13__nv_bfloat166__halfEvPT1_S3_llllPKS2_llS5_llPKT2_mmfE3rms = linkonce_odr dso_local local_unnamed_addr addrspace(3) global float undef, comdat, align 4
@_ZZ16add_rmsnormBlockILj4096Ef13__nv_bfloat16fEvPT1_S2_llllPKS1_llS4_llPKT2_mmfE12temp_storage = linkonce_odr dso_local local_unnamed_addr addrspace(3) global %"struct.cub::BlockReduce<float, 4096>::TempStorage" undef, comdat, align 4
@_ZZ16add_rmsnormBlockILj4096Ef13__nv_bfloat16fEvPT1_S2_llllPKS1_llS4_llPKT2_mmfE3rms = linkonce_odr dso_local local_unnamed_addr addrspace(3) global float undef, comdat, align 4
@_ZZ16add_rmsnormBlockILj4096EfffEvPT1_S1_llllPKS0_llS3_llPKT2_mmfE12temp_storage = linkonce_odr dso_local local_unnamed_addr addrspace(3) global %"struct.cub::BlockReduce<float, 4096>::TempStorage" undef, comdat, align 4
@_ZZ16add_rmsnormBlockILj4096EfffEvPT1_S1_llllPKS0_llS3_llPKT2_mmfE3rms = linkonce_odr dso_local local_unnamed_addr addrspace(3) global float undef, comdat, align 4
@gPrintBuf = dso_local addrspace(1) externally_initialized global ptr null, align 8
@gAssertReason = dso_local addrspace(1) externally_initialized global ptr null, align 8
@gMallocHeapBase = addrspace(1) externally_initialized global ptr null, align 8
@gMallocHeapSize = addrspace(1) externally_initialized global i32 0, align 4
@llvm.compiler.used = appending global [4 x ptr] [ptr addrspacecast (ptr addrspace(1) @gAssertReason to ptr), ptr addrspacecast (ptr addrspace(1) @gMallocHeapBase to ptr), ptr addrspacecast (ptr addrspace(1) @gMallocHeapSize to ptr), ptr addrspacecast (ptr addrspace(1) @gPrintBuf to ptr)], section "llvm.metadata"

; Function Attrs: convergent mustprogress norecurse nounwind
define dso_local iluvatar_kernel void @_Z17add_rmsnormKernelILj512Ef6__halfS0_EvPT1_S2_llllPKS1_llS4_llPKT2_mmf(ptr addrspace(1) noalias nocapture noundef writeonly %0, ptr addrspace(1) noalias nocapture noundef %1, i64 noundef %2, i64 noundef %3, i64 noundef %4, i64 noundef %5, ptr addrspace(1) noalias nocapture noundef readonly %6, i64 noundef %7, i64 noundef %8, ptr addrspace(1) noalias nocapture noundef readonly %9, i64 noundef %10, i64 noundef %11, ptr addrspace(1) noalias nocapture noundef readonly %12, i64 noundef %13, i64 noundef %14, float noundef %15) local_unnamed_addr #0 comdat {
  tail call void @llvm.experimental.noalias.scope.decl(metadata !4)
  tail call void @llvm.experimental.noalias.scope.decl(metadata !7)
  tail call void @llvm.experimental.noalias.scope.decl(metadata !9)
  tail call void @llvm.experimental.noalias.scope.decl(metadata !11)
  tail call void @llvm.experimental.noalias.scope.decl(metadata !13)
  %17 = tail call noundef i32 @llvm.nvvm.read.ptx.sreg.ctaid.x(), !range !15
  %18 = zext nneg i32 %17 to i64
  %19 = udiv i64 %18, %13
  %20 = mul i64 %19, %13
  %21 = sub i64 %18, %20
  %22 = mul i64 %19, %2
  %23 = getelementptr inbounds %struct.__half, ptr addrspace(1) %0, i64 %22
  %24 = mul i64 %21, %3
  %25 = getelementptr inbounds %struct.__half, ptr addrspace(1) %23, i64 %24
  %26 = mul i64 %19, %7
  %27 = getelementptr inbounds %struct.__half, ptr addrspace(1) %6, i64 %26
  %28 = mul i64 %21, %8
  %29 = getelementptr inbounds %struct.__half, ptr addrspace(1) %27, i64 %28
  %30 = mul i64 %19, %10
  %31 = getelementptr inbounds %struct.__half, ptr addrspace(1) %9, i64 %30
  %32 = mul i64 %21, %11
  %33 = getelementptr inbounds %struct.__half, ptr addrspace(1) %31, i64 %32
  %34 = mul i64 %19, %4
  %35 = getelementptr inbounds %struct.__half, ptr addrspace(1) %1, i64 %34
  %36 = mul i64 %21, %5
  %37 = getelementptr inbounds %struct.__half, ptr addrspace(1) %35, i64 %36
  %38 = tail call noundef i32 @llvm.nvvm.read.ptx.sreg.tid.x(), !range !16
  %39 = zext nneg i32 %38 to i64
  %40 = icmp ult i64 %39, %14
  br i1 %40, label %.preheader, label %.loopexit3

.loopexit3:                                       ; preds = %.preheader, %16
  %41 = phi float [ 0.000000e+00, %16 ], [ %114, %.preheader ]
  %42 = tail call noundef i32 @llvm.bi.lane.id(), !range !17, !noundef !18
  %43 = icmp ne i32 %42, 63
  %44 = zext i1 %43 to i32
  %45 = add nuw nsw i32 %42, %44
  %46 = tail call contract float @llvm.bi.slb.shfl.idx.b32.f32(float %41, i32 %45)
  %47 = select i1 %43, float %41, float -0.000000e+00
  %48 = fadd contract float %46, %47
  %49 = add nuw nsw i32 %42, 2
  %50 = icmp ugt i32 %42, 61
  %51 = select i1 %50, i32 %42, i32 %49
  %52 = tail call contract float @llvm.bi.slb.shfl.idx.b32.f32(float %48, i32 %51)
  %53 = select i1 %50, float -0.000000e+00, float %48
  %54 = fadd contract float %52, %53
  %55 = add nuw nsw i32 %42, 4
  %56 = icmp ugt i32 %42, 59
  %57 = select i1 %56, i32 %42, i32 %55
  %58 = tail call contract float @llvm.bi.slb.shfl.idx.b32.f32(float %54, i32 %57)
  %59 = select i1 %56, float -0.000000e+00, float %54
  %60 = fadd contract float %58, %59
  %61 = add nuw nsw i32 %42, 8
  %62 = icmp ugt i32 %42, 55
  %63 = select i1 %62, i32 %42, i32 %61
  %64 = tail call contract float @llvm.bi.slb.shfl.idx.b32.f32(float %60, i32 %63)
  %65 = select i1 %62, float -0.000000e+00, float %60
  %66 = fadd contract float %64, %65
  %67 = add nuw nsw i32 %42, 16
  %68 = icmp ugt i32 %42, 47
  %69 = select i1 %68, i32 %42, i32 %67
  %70 = tail call contract float @llvm.bi.slb.shfl.idx.b32.f32(float %66, i32 %69)
  %71 = select i1 %68, float -0.000000e+00, float %66
  %72 = fadd contract float %70, %71
  %73 = add nuw nsw i32 %42, 32
  %74 = icmp ugt i32 %42, 31
  %75 = select i1 %74, i32 %42, i32 %73
  %76 = tail call contract float @llvm.bi.slb.shfl.idx.b32.f32(float %72, i32 %75)
  %77 = select i1 %74, float -0.000000e+00, float %72
  %78 = fadd contract float %76, %77
  %79 = icmp eq i32 %42, 0
  br i1 %79, label %80, label %83

80:                                               ; preds = %.loopexit3
  %81 = lshr i32 %38, 6
  %82 = getelementptr inbounds %"struct.cub::BlockReduceWarpReductions<float, 512, 1, 1, 300>::_TempStorage", ptr addrspace(3) @_ZZ16add_rmsnormBlockILj512Ef6__halfS0_EvPT1_S2_llllPKS1_llS4_llPKT2_mmfE12temp_storage, i32 0, i32 1, i32 %81
  store float %78, ptr addrspace(3) %82, align 4, !tbaa !19, !noalias !23
  br label %83

83:                                               ; preds = %80, %.loopexit3
  tail call void @llvm.bi.sl.barrier(), !noalias !23
  %84 = icmp eq i32 %38, 0
  br i1 %84, label %85, label %100

85:                                               ; preds = %83
  %86 = load float, ptr addrspace(3) getelementptr inbounds (%"struct.cub::BlockReduce<float, 512>::TempStorage", ptr addrspace(3) @_ZZ16add_rmsnormBlockILj512Ef6__halfS0_EvPT1_S2_llllPKS1_llS4_llPKT2_mmfE12temp_storage, i32 0, i32 0, i32 0, i32 3), align 4, !tbaa !19, !noalias !23
  %87 = fadd contract float %78, %86
  %88 = load float, ptr addrspace(3) getelementptr inbounds (%"struct.cub::BlockReduce<float, 512>::TempStorage", ptr addrspace(3) @_ZZ16add_rmsnormBlockILj512Ef6__halfS0_EvPT1_S2_llllPKS1_llS4_llPKT2_mmfE12temp_storage, i32 0, i32 0, i32 0, i32 4), align 4, !tbaa !19, !noalias !23
  %89 = fadd contract float %88, %87
  %90 = load float, ptr addrspace(3) getelementptr inbounds (%"struct.cub::BlockReduce<float, 512>::TempStorage", ptr addrspace(3) @_ZZ16add_rmsnormBlockILj512Ef6__halfS0_EvPT1_S2_llllPKS1_llS4_llPKT2_mmfE12temp_storage, i32 0, i32 0, i32 0, i32 5), align 4, !tbaa !19, !noalias !23
  %91 = fadd contract float %90, %89
  %92 = load float, ptr addrspace(3) getelementptr inbounds (%"struct.cub::BlockReduce<float, 512>::TempStorage", ptr addrspace(3) @_ZZ16add_rmsnormBlockILj512Ef6__halfS0_EvPT1_S2_llllPKS1_llS4_llPKT2_mmfE12temp_storage, i32 0, i32 0, i32 0, i32 6), align 4, !tbaa !19, !noalias !23
  %93 = fadd contract float %92, %91
  %94 = load float, ptr addrspace(3) getelementptr inbounds (%"struct.cub::BlockReduce<float, 512>::TempStorage", ptr addrspace(3) @_ZZ16add_rmsnormBlockILj512Ef6__halfS0_EvPT1_S2_llllPKS1_llS4_llPKT2_mmfE12temp_storage, i32 0, i32 0, i32 0, i32 7), align 4, !tbaa !19, !noalias !23
  %95 = fadd contract float %94, %93
  %96 = load float, ptr addrspace(3) getelementptr inbounds (%"struct.cub::BlockReduce<float, 512>::TempStorage", ptr addrspace(3) @_ZZ16add_rmsnormBlockILj512Ef6__halfS0_EvPT1_S2_llllPKS1_llS4_llPKT2_mmfE12temp_storage, i32 0, i32 0, i32 0, i32 8), align 4, !tbaa !19, !noalias !23
  %97 = fadd contract float %96, %95
  %98 = load float, ptr addrspace(3) getelementptr inbounds (%"struct.cub::BlockReduce<float, 512>::TempStorage", ptr addrspace(3) @_ZZ16add_rmsnormBlockILj512Ef6__halfS0_EvPT1_S2_llllPKS1_llS4_llPKT2_mmfE12temp_storage, i32 0, i32 0, i32 0, i32 9), align 4, !tbaa !19, !noalias !23
  %99 = fadd contract float %98, %97
  br label %100

100:                                              ; preds = %85, %83
  %101 = phi float [ %99, %85 ], [ %78, %83 ]
  br i1 %84, label %117, label %153

.preheader:                                       ; preds = %16, %.preheader
  %102 = phi float [ %114, %.preheader ], [ 0.000000e+00, %16 ]
  %103 = phi i64 [ %115, %.preheader ], [ %39, %16 ]
  %104 = getelementptr inbounds %struct.__half, ptr addrspace(1) %29, i64 %103
  %105 = load half, ptr addrspace(1) %104, align 2, !tbaa.struct !24, !alias.scope !9, !noalias !27, !iluvatar.noclobber !18
  %106 = fpext half %105 to float
  %107 = getelementptr inbounds %struct.__half, ptr addrspace(1) %33, i64 %103
  %108 = load half, ptr addrspace(1) %107, align 2, !tbaa.struct !24, !alias.scope !11, !noalias !28, !iluvatar.noclobber !18
  %109 = fpext half %108 to float
  %110 = fadd contract float %106, %109
  %111 = fptrunc float %110 to half
  %112 = getelementptr inbounds %struct.__half, ptr addrspace(1) %37, i64 %103
  store half %111, ptr addrspace(1) %112, align 2, !tbaa !25, !alias.scope !7, !noalias !29
  %113 = fmul contract float %110, %110
  %114 = fadd contract float %102, %113
  %115 = add i64 %103, 512
  %116 = icmp ult i64 %115, %14
  br i1 %116, label %.preheader, label %.loopexit3, !llvm.loop !30

117:                                              ; preds = %100
  %118 = uitofp i64 %14 to float
  %119 = fdiv contract float %101, %118
  %120 = fadd contract float %119, %15
  %121 = tail call float @llvm.fabs.f32(float %120)
  %122 = fcmp contract olt float %121, 0x3810000000000000
  %123 = fmul contract float %120, 0x4170000000000000
  %124 = select i1 %122, float %123, float %120
  %125 = bitcast float %124 to i32
  %126 = add i32 %125, -8388608
  %127 = icmp ult i32 %126, 2130706432
  br i1 %127, label %128, label %149

128:                                              ; preds = %117
  %129 = and i32 %125, 16777215
  %130 = or disjoint i32 %129, 1056964608
  %131 = bitcast i32 %130 to float
  %132 = sub nsw i32 %130, %125
  %133 = add nsw i32 %132, 201326592
  %134 = select i1 %122, i32 %133, i32 %132
  %135 = tail call contract noundef float @llvm.nvvm.rsqrt.approx.ftz.f(float noundef %131) #7
  %136 = fmul contract float %135, %135
  %137 = fneg contract float %136
  %138 = tail call float @llvm.fma.f32(float %135, float %135, float %137)
  %139 = fneg contract float %131
  %140 = tail call float @llvm.fma.f32(float %136, float %139, float 1.000000e+00)
  %141 = tail call float @llvm.fma.f32(float %138, float %139, float %140)
  %142 = tail call float @llvm.fma.f32(float %141, float 3.750000e-01, float 5.000000e-01)
  %143 = fmul contract float %135, %141
  %144 = tail call float @llvm.fma.f32(float %142, float %143, float %135)
  %145 = ashr i32 %134, 1
  %146 = bitcast float %144 to i32
  %147 = add i32 %145, %146
  %148 = bitcast i32 %147 to float
  br label %151

149:                                              ; preds = %117
  %150 = tail call contract noundef float @llvm.nvvm.rsqrt.approx.ftz.f(float noundef %124) #7
  br label %151

151:                                              ; preds = %149, %128
  %152 = phi float [ %148, %128 ], [ %150, %149 ]
  store float %152, ptr addrspace(3) @_ZZ16add_rmsnormBlockILj512Ef6__halfS0_EvPT1_S2_llllPKS1_llS4_llPKT2_mmfE3rms, align 4, !tbaa !19, !noalias !23
  br label %153

153:                                              ; preds = %151, %100
  tail call void @llvm.bi.sl.barrier(), !noalias !23
  br i1 %40, label %154, label %.loopexit

154:                                              ; preds = %153
  %155 = load float, ptr addrspace(3) @_ZZ16add_rmsnormBlockILj512Ef6__halfS0_EvPT1_S2_llllPKS1_llS4_llPKT2_mmfE3rms, align 4, !tbaa !19, !noalias !23
  %156 = xor i64 %39, -1
  %157 = add i64 %156, %14
  %158 = lshr i64 %157, 9
  %159 = add nuw nsw i64 %158, 1
  %160 = icmp ult i64 %157, 512
  br i1 %160, label %.preheader4, label %161

161:                                              ; preds = %154
  %162 = and i64 %159, 72057594037927934
  %163 = shl i64 %162, 9
  %164 = insertelement <2 x float> poison, float %155, i64 0
  %165 = shufflevector <2 x float> %164, <2 x float> poison, <2 x i32> zeroinitializer
  br label %166

166:                                              ; preds = %166, %161
  %167 = phi i64 [ 0, %161 ], [ %192, %166 ]
  %168 = shl i64 %167, 9
  %169 = add i64 %168, %39
  %170 = add i64 %169, 512
  %171 = getelementptr inbounds %struct.__half, ptr addrspace(1) %37, i64 %169
  %172 = getelementptr inbounds %struct.__half, ptr addrspace(1) %37, i64 %170
  %173 = load half, ptr addrspace(1) %171, align 2, !tbaa.struct !24, !alias.scope !7, !noalias !29
  %174 = load half, ptr addrspace(1) %172, align 2, !tbaa.struct !24, !alias.scope !7, !noalias !29
  %175 = insertelement <2 x half> poison, half %173, i64 0
  %176 = insertelement <2 x half> %175, half %174, i64 1
  %177 = fpext <2 x half> %176 to <2 x float>
  %178 = getelementptr inbounds %struct.__half, ptr addrspace(1) %12, i64 %169
  %179 = getelementptr inbounds %struct.__half, ptr addrspace(1) %12, i64 %170
  %180 = load half, ptr addrspace(1) %178, align 2, !tbaa.struct !24, !alias.scope !13, !noalias !32, !iluvatar.noclobber !18
  %181 = load half, ptr addrspace(1) %179, align 2, !tbaa.struct !24, !alias.scope !13, !noalias !32, !iluvatar.noclobber !18
  %182 = insertelement <2 x half> poison, half %180, i64 0
  %183 = insertelement <2 x half> %182, half %181, i64 1
  %184 = fpext <2 x half> %183 to <2 x float>
  %185 = fmul contract <2 x float> %177, %184
  %186 = fmul contract <2 x float> %165, %185
  %187 = fptrunc <2 x float> %186 to <2 x half>
  %188 = getelementptr inbounds %struct.__half, ptr addrspace(1) %25, i64 %169
  %189 = getelementptr inbounds %struct.__half, ptr addrspace(1) %25, i64 %170
  %190 = extractelement <2 x half> %187, i64 0
  store half %190, ptr addrspace(1) %188, align 2, !tbaa !25, !alias.scope !4, !noalias !33
  %191 = extractelement <2 x half> %187, i64 1
  store half %191, ptr addrspace(1) %189, align 2, !tbaa !25, !alias.scope !4, !noalias !33
  %192 = add nuw i64 %167, 2
  %193 = icmp eq i64 %192, %162
  br i1 %193, label %194, label %166, !llvm.loop !34

194:                                              ; preds = %166
  %195 = add i64 %163, %39
  %196 = icmp eq i64 %159, %162
  br i1 %196, label %.loopexit, label %.preheader4

.preheader4:                                      ; preds = %194, %154
  %.ph = phi i64 [ %195, %194 ], [ %39, %154 ]
  br label %197

197:                                              ; preds = %.preheader4, %197
  %198 = phi i64 [ %209, %197 ], [ %.ph, %.preheader4 ]
  %199 = getelementptr inbounds %struct.__half, ptr addrspace(1) %37, i64 %198
  %200 = load half, ptr addrspace(1) %199, align 2, !tbaa.struct !24, !alias.scope !7, !noalias !29
  %201 = fpext half %200 to float
  %202 = getelementptr inbounds %struct.__half, ptr addrspace(1) %12, i64 %198
  %203 = load half, ptr addrspace(1) %202, align 2, !tbaa.struct !24, !alias.scope !13, !noalias !32, !iluvatar.noclobber !18
  %204 = fpext half %203 to float
  %205 = fmul contract float %201, %204
  %206 = fmul contract float %155, %205
  %207 = fptrunc float %206 to half
  %208 = getelementptr inbounds %struct.__half, ptr addrspace(1) %25, i64 %198
  store half %207, ptr addrspace(1) %208, align 2, !tbaa !25, !alias.scope !4, !noalias !33
  %209 = add i64 %198, 512
  %210 = icmp ult i64 %209, %14
  br i1 %210, label %197, label %.loopexit, !llvm.loop !37

.loopexit:                                        ; preds = %197, %194, %153
  ret void
}

; Function Attrs: convergent nounwind
declare void @llvm.bi.sl.barrier() #1

; Function Attrs: mustprogress nocallback nofree nosync nounwind speculatable willreturn memory(none)
declare noundef i32 @llvm.nvvm.read.ptx.sreg.ctaid.x() #2

; Function Attrs: mustprogress nocallback nofree nosync nounwind speculatable willreturn memory(none)
declare noundef i32 @llvm.nvvm.read.ptx.sreg.tid.x() #2

; Function Attrs: nofree nosync nounwind speculatable memory(none)
declare i32 @llvm.bi.lane.id() #3

; Function Attrs: convergent nofree nounwind memory(none)
declare float @llvm.bi.slb.shfl.idx.b32.f32(float, i32) #4

; Function Attrs: convergent mustprogress norecurse nounwind
define dso_local iluvatar_kernel void @_Z17add_rmsnormKernelILj512Ef6__half13__nv_bfloat16EvPT1_S3_llllPKS2_llS5_llPKT2_mmf(ptr addrspace(1) noalias nocapture noundef writeonly %0, ptr addrspace(1) noalias nocapture noundef %1, i64 noundef %2, i64 noundef %3, i64 noundef %4, i64 noundef %5, ptr addrspace(1) noalias nocapture noundef readonly %6, i64 noundef %7, i64 noundef %8, ptr addrspace(1) noalias nocapture noundef readonly %9, i64 noundef %10, i64 noundef %11, ptr addrspace(1) noalias nocapture noundef readonly %12, i64 noundef %13, i64 noundef %14, float noundef %15) local_unnamed_addr #0 comdat {
  tail call void @llvm.experimental.noalias.scope.decl(metadata !38)
  tail call void @llvm.experimental.noalias.scope.decl(metadata !41)
  tail call void @llvm.experimental.noalias.scope.decl(metadata !43)
  tail call void @llvm.experimental.noalias.scope.decl(metadata !45)
  tail call void @llvm.experimental.noalias.scope.decl(metadata !47)
  %17 = tail call noundef i32 @llvm.nvvm.read.ptx.sreg.ctaid.x(), !range !15
  %18 = zext nneg i32 %17 to i64
  %19 = udiv i64 %18, %13
  %20 = mul i64 %19, %13
  %21 = sub i64 %18, %20
  %22 = mul i64 %19, %2
  %23 = getelementptr inbounds %struct.__half, ptr addrspace(1) %0, i64 %22
  %24 = mul i64 %21, %3
  %25 = getelementptr inbounds %struct.__half, ptr addrspace(1) %23, i64 %24
  %26 = mul i64 %19, %7
  %27 = getelementptr inbounds %struct.__half, ptr addrspace(1) %6, i64 %26
  %28 = mul i64 %21, %8
  %29 = getelementptr inbounds %struct.__half, ptr addrspace(1) %27, i64 %28
  %30 = mul i64 %19, %10
  %31 = getelementptr inbounds %struct.__half, ptr addrspace(1) %9, i64 %30
  %32 = mul i64 %21, %11
  %33 = getelementptr inbounds %struct.__half, ptr addrspace(1) %31, i64 %32
  %34 = mul i64 %19, %4
  %35 = getelementptr inbounds %struct.__half, ptr addrspace(1) %1, i64 %34
  %36 = mul i64 %21, %5
  %37 = getelementptr inbounds %struct.__half, ptr addrspace(1) %35, i64 %36
  %38 = tail call noundef i32 @llvm.nvvm.read.ptx.sreg.tid.x(), !range !16
  %39 = zext nneg i32 %38 to i64
  %40 = icmp ult i64 %39, %14
  br i1 %40, label %.preheader, label %.loopexit3

.loopexit3:                                       ; preds = %.preheader, %16
  %41 = phi float [ 0.000000e+00, %16 ], [ %114, %.preheader ]
  %42 = tail call noundef i32 @llvm.bi.lane.id(), !range !17, !noundef !18
  %43 = icmp ne i32 %42, 63
  %44 = zext i1 %43 to i32
  %45 = add nuw nsw i32 %42, %44
  %46 = tail call contract float @llvm.bi.slb.shfl.idx.b32.f32(float %41, i32 %45)
  %47 = select i1 %43, float %41, float -0.000000e+00
  %48 = fadd contract float %46, %47
  %49 = add nuw nsw i32 %42, 2
  %50 = icmp ugt i32 %42, 61
  %51 = select i1 %50, i32 %42, i32 %49
  %52 = tail call contract float @llvm.bi.slb.shfl.idx.b32.f32(float %48, i32 %51)
  %53 = select i1 %50, float -0.000000e+00, float %48
  %54 = fadd contract float %52, %53
  %55 = add nuw nsw i32 %42, 4
  %56 = icmp ugt i32 %42, 59
  %57 = select i1 %56, i32 %42, i32 %55
  %58 = tail call contract float @llvm.bi.slb.shfl.idx.b32.f32(float %54, i32 %57)
  %59 = select i1 %56, float -0.000000e+00, float %54
  %60 = fadd contract float %58, %59
  %61 = add nuw nsw i32 %42, 8
  %62 = icmp ugt i32 %42, 55
  %63 = select i1 %62, i32 %42, i32 %61
  %64 = tail call contract float @llvm.bi.slb.shfl.idx.b32.f32(float %60, i32 %63)
  %65 = select i1 %62, float -0.000000e+00, float %60
  %66 = fadd contract float %64, %65
  %67 = add nuw nsw i32 %42, 16
  %68 = icmp ugt i32 %42, 47
  %69 = select i1 %68, i32 %42, i32 %67
  %70 = tail call contract float @llvm.bi.slb.shfl.idx.b32.f32(float %66, i32 %69)
  %71 = select i1 %68, float -0.000000e+00, float %66
  %72 = fadd contract float %70, %71
  %73 = add nuw nsw i32 %42, 32
  %74 = icmp ugt i32 %42, 31
  %75 = select i1 %74, i32 %42, i32 %73
  %76 = tail call contract float @llvm.bi.slb.shfl.idx.b32.f32(float %72, i32 %75)
  %77 = select i1 %74, float -0.000000e+00, float %72
  %78 = fadd contract float %76, %77
  %79 = icmp eq i32 %42, 0
  br i1 %79, label %80, label %83

80:                                               ; preds = %.loopexit3
  %81 = lshr i32 %38, 6
  %82 = getelementptr inbounds %"struct.cub::BlockReduceWarpReductions<float, 512, 1, 1, 300>::_TempStorage", ptr addrspace(3) @_ZZ16add_rmsnormBlockILj512Ef6__half13__nv_bfloat16EvPT1_S3_llllPKS2_llS5_llPKT2_mmfE12temp_storage, i32 0, i32 1, i32 %81
  store float %78, ptr addrspace(3) %82, align 4, !tbaa !19, !noalias !49
  br label %83

83:                                               ; preds = %80, %.loopexit3
  tail call void @llvm.bi.sl.barrier(), !noalias !49
  %84 = icmp eq i32 %38, 0
  br i1 %84, label %85, label %100

85:                                               ; preds = %83
  %86 = load float, ptr addrspace(3) getelementptr inbounds (%"struct.cub::BlockReduce<float, 512>::TempStorage", ptr addrspace(3) @_ZZ16add_rmsnormBlockILj512Ef6__half13__nv_bfloat16EvPT1_S3_llllPKS2_llS5_llPKT2_mmfE12temp_storage, i32 0, i32 0, i32 0, i32 3), align 4, !tbaa !19, !noalias !49
  %87 = fadd contract float %78, %86
  %88 = load float, ptr addrspace(3) getelementptr inbounds (%"struct.cub::BlockReduce<float, 512>::TempStorage", ptr addrspace(3) @_ZZ16add_rmsnormBlockILj512Ef6__half13__nv_bfloat16EvPT1_S3_llllPKS2_llS5_llPKT2_mmfE12temp_storage, i32 0, i32 0, i32 0, i32 4), align 4, !tbaa !19, !noalias !49
  %89 = fadd contract float %88, %87
  %90 = load float, ptr addrspace(3) getelementptr inbounds (%"struct.cub::BlockReduce<float, 512>::TempStorage", ptr addrspace(3) @_ZZ16add_rmsnormBlockILj512Ef6__half13__nv_bfloat16EvPT1_S3_llllPKS2_llS5_llPKT2_mmfE12temp_storage, i32 0, i32 0, i32 0, i32 5), align 4, !tbaa !19, !noalias !49
  %91 = fadd contract float %90, %89
  %92 = load float, ptr addrspace(3) getelementptr inbounds (%"struct.cub::BlockReduce<float, 512>::TempStorage", ptr addrspace(3) @_ZZ16add_rmsnormBlockILj512Ef6__half13__nv_bfloat16EvPT1_S3_llllPKS2_llS5_llPKT2_mmfE12temp_storage, i32 0, i32 0, i32 0, i32 6), align 4, !tbaa !19, !noalias !49
  %93 = fadd contract float %92, %91
  %94 = load float, ptr addrspace(3) getelementptr inbounds (%"struct.cub::BlockReduce<float, 512>::TempStorage", ptr addrspace(3) @_ZZ16add_rmsnormBlockILj512Ef6__half13__nv_bfloat16EvPT1_S3_llllPKS2_llS5_llPKT2_mmfE12temp_storage, i32 0, i32 0, i32 0, i32 7), align 4, !tbaa !19, !noalias !49
  %95 = fadd contract float %94, %93
  %96 = load float, ptr addrspace(3) getelementptr inbounds (%"struct.cub::BlockReduce<float, 512>::TempStorage", ptr addrspace(3) @_ZZ16add_rmsnormBlockILj512Ef6__half13__nv_bfloat16EvPT1_S3_llllPKS2_llS5_llPKT2_mmfE12temp_storage, i32 0, i32 0, i32 0, i32 8), align 4, !tbaa !19, !noalias !49
  %97 = fadd contract float %96, %95
  %98 = load float, ptr addrspace(3) getelementptr inbounds (%"struct.cub::BlockReduce<float, 512>::TempStorage", ptr addrspace(3) @_ZZ16add_rmsnormBlockILj512Ef6__half13__nv_bfloat16EvPT1_S3_llllPKS2_llS5_llPKT2_mmfE12temp_storage, i32 0, i32 0, i32 0, i32 9), align 4, !tbaa !19, !noalias !49
  %99 = fadd contract float %98, %97
  br label %100

100:                                              ; preds = %85, %83
  %101 = phi float [ %99, %85 ], [ %78, %83 ]
  br i1 %84, label %117, label %153

.preheader:                                       ; preds = %16, %.preheader
  %102 = phi float [ %114, %.preheader ], [ 0.000000e+00, %16 ]
  %103 = phi i64 [ %115, %.preheader ], [ %39, %16 ]
  %104 = getelementptr inbounds %struct.__half, ptr addrspace(1) %29, i64 %103
  %105 = load half, ptr addrspace(1) %104, align 2, !tbaa.struct !24, !alias.scope !43, !noalias !50, !iluvatar.noclobber !18
  %106 = fpext half %105 to float
  %107 = getelementptr inbounds %struct.__half, ptr addrspace(1) %33, i64 %103
  %108 = load half, ptr addrspace(1) %107, align 2, !tbaa.struct !24, !alias.scope !45, !noalias !51, !iluvatar.noclobber !18
  %109 = fpext half %108 to float
  %110 = fadd contract float %106, %109
  %111 = fptrunc float %110 to half
  %112 = getelementptr inbounds %struct.__half, ptr addrspace(1) %37, i64 %103
  store half %111, ptr addrspace(1) %112, align 2, !tbaa !25, !alias.scope !41, !noalias !52
  %113 = fmul contract float %110, %110
  %114 = fadd contract float %102, %113
  %115 = add i64 %103, 512
  %116 = icmp ult i64 %115, %14
  br i1 %116, label %.preheader, label %.loopexit3, !llvm.loop !53

117:                                              ; preds = %100
  %118 = uitofp i64 %14 to float
  %119 = fdiv contract float %101, %118
  %120 = fadd contract float %119, %15
  %121 = tail call float @llvm.fabs.f32(float %120)
  %122 = fcmp contract olt float %121, 0x3810000000000000
  %123 = fmul contract float %120, 0x4170000000000000
  %124 = select i1 %122, float %123, float %120
  %125 = bitcast float %124 to i32
  %126 = add i32 %125, -8388608
  %127 = icmp ult i32 %126, 2130706432
  br i1 %127, label %128, label %149

128:                                              ; preds = %117
  %129 = and i32 %125, 16777215
  %130 = or disjoint i32 %129, 1056964608
  %131 = bitcast i32 %130 to float
  %132 = sub nsw i32 %130, %125
  %133 = add nsw i32 %132, 201326592
  %134 = select i1 %122, i32 %133, i32 %132
  %135 = tail call contract noundef float @llvm.nvvm.rsqrt.approx.ftz.f(float noundef %131) #7
  %136 = fmul contract float %135, %135
  %137 = fneg contract float %136
  %138 = tail call float @llvm.fma.f32(float %135, float %135, float %137)
  %139 = fneg contract float %131
  %140 = tail call float @llvm.fma.f32(float %136, float %139, float 1.000000e+00)
  %141 = tail call float @llvm.fma.f32(float %138, float %139, float %140)
  %142 = tail call float @llvm.fma.f32(float %141, float 3.750000e-01, float 5.000000e-01)
  %143 = fmul contract float %135, %141
  %144 = tail call float @llvm.fma.f32(float %142, float %143, float %135)
  %145 = ashr i32 %134, 1
  %146 = bitcast float %144 to i32
  %147 = add i32 %145, %146
  %148 = bitcast i32 %147 to float
  br label %151

149:                                              ; preds = %117
  %150 = tail call contract noundef float @llvm.nvvm.rsqrt.approx.ftz.f(float noundef %124) #7
  br label %151

151:                                              ; preds = %149, %128
  %152 = phi float [ %148, %128 ], [ %150, %149 ]
  store float %152, ptr addrspace(3) @_ZZ16add_rmsnormBlockILj512Ef6__half13__nv_bfloat16EvPT1_S3_llllPKS2_llS5_llPKT2_mmfE3rms, align 4, !tbaa !19, !noalias !49
  br label %153

153:                                              ; preds = %151, %100
  tail call void @llvm.bi.sl.barrier(), !noalias !49
  br i1 %40, label %154, label %.loopexit

154:                                              ; preds = %153
  %155 = load float, ptr addrspace(3) @_ZZ16add_rmsnormBlockILj512Ef6__half13__nv_bfloat16EvPT1_S3_llllPKS2_llS5_llPKT2_mmfE3rms, align 4, !tbaa !19, !noalias !49
  %156 = xor i64 %39, -1
  %157 = add i64 %156, %14
  %158 = lshr i64 %157, 9
  %159 = add nuw nsw i64 %158, 1
  %160 = icmp ult i64 %157, 512
  br i1 %160, label %.preheader4, label %161

161:                                              ; preds = %154
  %162 = and i64 %159, 72057594037927934
  %163 = shl i64 %162, 9
  %164 = insertelement <2 x float> poison, float %155, i64 0
  %165 = shufflevector <2 x float> %164, <2 x float> poison, <2 x i32> zeroinitializer
  br label %166

166:                                              ; preds = %166, %161
  %167 = phi i64 [ 0, %161 ], [ %192, %166 ]
  %168 = shl i64 %167, 9
  %169 = add i64 %168, %39
  %170 = add i64 %169, 512
  %171 = getelementptr inbounds %struct.__half, ptr addrspace(1) %37, i64 %169
  %172 = getelementptr inbounds %struct.__half, ptr addrspace(1) %37, i64 %170
  %173 = load half, ptr addrspace(1) %171, align 2, !tbaa.struct !24, !alias.scope !41, !noalias !52
  %174 = load half, ptr addrspace(1) %172, align 2, !tbaa.struct !24, !alias.scope !41, !noalias !52
  %175 = insertelement <2 x half> poison, half %173, i64 0
  %176 = insertelement <2 x half> %175, half %174, i64 1
  %177 = fpext <2 x half> %176 to <2 x float>
  %178 = getelementptr inbounds %struct.__nv_bfloat16, ptr addrspace(1) %12, i64 %169
  %179 = getelementptr inbounds %struct.__nv_bfloat16, ptr addrspace(1) %12, i64 %170
  %180 = load bfloat, ptr addrspace(1) %178, align 2, !tbaa.struct !24, !alias.scope !47, !noalias !54, !iluvatar.noclobber !18
  %181 = load bfloat, ptr addrspace(1) %179, align 2, !tbaa.struct !24, !alias.scope !47, !noalias !54, !iluvatar.noclobber !18
  %182 = insertelement <2 x bfloat> poison, bfloat %180, i64 0
  %183 = insertelement <2 x bfloat> %182, bfloat %181, i64 1
  %184 = fpext <2 x bfloat> %183 to <2 x float>
  %185 = fmul contract <2 x float> %177, %184
  %186 = fmul contract <2 x float> %165, %185
  %187 = fptrunc <2 x float> %186 to <2 x half>
  %188 = getelementptr inbounds %struct.__half, ptr addrspace(1) %25, i64 %169
  %189 = getelementptr inbounds %struct.__half, ptr addrspace(1) %25, i64 %170
  %190 = extractelement <2 x half> %187, i64 0
  store half %190, ptr addrspace(1) %188, align 2, !tbaa !25, !alias.scope !38, !noalias !55
  %191 = extractelement <2 x half> %187, i64 1
  store half %191, ptr addrspace(1) %189, align 2, !tbaa !25, !alias.scope !38, !noalias !55
  %192 = add nuw i64 %167, 2
  %193 = icmp eq i64 %192, %162
  br i1 %193, label %194, label %166, !llvm.loop !56

194:                                              ; preds = %166
  %195 = add i64 %163, %39
  %196 = icmp eq i64 %159, %162
  br i1 %196, label %.loopexit, label %.preheader4

.preheader4:                                      ; preds = %194, %154
  %.ph = phi i64 [ %195, %194 ], [ %39, %154 ]
  br label %197

197:                                              ; preds = %.preheader4, %197
  %198 = phi i64 [ %209, %197 ], [ %.ph, %.preheader4 ]
  %199 = getelementptr inbounds %struct.__half, ptr addrspace(1) %37, i64 %198
  %200 = load half, ptr addrspace(1) %199, align 2, !tbaa.struct !24, !alias.scope !41, !noalias !52
  %201 = fpext half %200 to float
  %202 = getelementptr inbounds %struct.__nv_bfloat16, ptr addrspace(1) %12, i64 %198
  %203 = load bfloat, ptr addrspace(1) %202, align 2, !tbaa.struct !24, !alias.scope !47, !noalias !54, !iluvatar.noclobber !18
  %204 = fpext bfloat %203 to float
  %205 = fmul contract float %201, %204
  %206 = fmul contract float %155, %205
  %207 = fptrunc float %206 to half
  %208 = getelementptr inbounds %struct.__half, ptr addrspace(1) %25, i64 %198
  store half %207, ptr addrspace(1) %208, align 2, !tbaa !25, !alias.scope !38, !noalias !55
  %209 = add i64 %198, 512
  %210 = icmp ult i64 %209, %14
  br i1 %210, label %197, label %.loopexit, !llvm.loop !57

.loopexit:                                        ; preds = %197, %194, %153
  ret void
}

; Function Attrs: convergent mustprogress norecurse nounwind
define dso_local iluvatar_kernel void @_Z17add_rmsnormKernelILj512Ef6__halffEvPT1_S2_llllPKS1_llS4_llPKT2_mmf(ptr addrspace(1) noalias nocapture noundef writeonly %0, ptr addrspace(1) noalias nocapture noundef %1, i64 noundef %2, i64 noundef %3, i64 noundef %4, i64 noundef %5, ptr addrspace(1) noalias nocapture noundef readonly %6, i64 noundef %7, i64 noundef %8, ptr addrspace(1) noalias nocapture noundef readonly %9, i64 noundef %10, i64 noundef %11, ptr addrspace(1) noalias nocapture noundef readonly %12, i64 noundef %13, i64 noundef %14, float noundef %15) local_unnamed_addr #0 comdat {
  tail call void @llvm.experimental.noalias.scope.decl(metadata !58)
  tail call void @llvm.experimental.noalias.scope.decl(metadata !61)
  tail call void @llvm.experimental.noalias.scope.decl(metadata !63)
  tail call void @llvm.experimental.noalias.scope.decl(metadata !65)
  tail call void @llvm.experimental.noalias.scope.decl(metadata !67)
  %17 = tail call noundef i32 @llvm.nvvm.read.ptx.sreg.ctaid.x(), !range !15
  %18 = zext nneg i32 %17 to i64
  %19 = udiv i64 %18, %13
  %20 = mul i64 %19, %13
  %21 = sub i64 %18, %20
  %22 = mul i64 %19, %2
  %23 = getelementptr inbounds %struct.__half, ptr addrspace(1) %0, i64 %22
  %24 = mul i64 %21, %3
  %25 = getelementptr inbounds %struct.__half, ptr addrspace(1) %23, i64 %24
  %26 = mul i64 %19, %7
  %27 = getelementptr inbounds %struct.__half, ptr addrspace(1) %6, i64 %26
  %28 = mul i64 %21, %8
  %29 = getelementptr inbounds %struct.__half, ptr addrspace(1) %27, i64 %28
  %30 = mul i64 %19, %10
  %31 = getelementptr inbounds %struct.__half, ptr addrspace(1) %9, i64 %30
  %32 = mul i64 %21, %11
  %33 = getelementptr inbounds %struct.__half, ptr addrspace(1) %31, i64 %32
  %34 = mul i64 %19, %4
  %35 = getelementptr inbounds %struct.__half, ptr addrspace(1) %1, i64 %34
  %36 = mul i64 %21, %5
  %37 = getelementptr inbounds %struct.__half, ptr addrspace(1) %35, i64 %36
  %38 = tail call noundef i32 @llvm.nvvm.read.ptx.sreg.tid.x(), !range !16
  %39 = zext nneg i32 %38 to i64
  %40 = icmp ult i64 %39, %14
  br i1 %40, label %.preheader, label %.loopexit2

.loopexit2:                                       ; preds = %.preheader, %16
  %41 = phi float [ 0.000000e+00, %16 ], [ %114, %.preheader ]
  %42 = tail call noundef i32 @llvm.bi.lane.id(), !range !17, !noundef !18
  %43 = icmp ne i32 %42, 63
  %44 = zext i1 %43 to i32
  %45 = add nuw nsw i32 %42, %44
  %46 = tail call contract float @llvm.bi.slb.shfl.idx.b32.f32(float %41, i32 %45)
  %47 = select i1 %43, float %41, float -0.000000e+00
  %48 = fadd contract float %46, %47
  %49 = add nuw nsw i32 %42, 2
  %50 = icmp ugt i32 %42, 61
  %51 = select i1 %50, i32 %42, i32 %49
  %52 = tail call contract float @llvm.bi.slb.shfl.idx.b32.f32(float %48, i32 %51)
  %53 = select i1 %50, float -0.000000e+00, float %48
  %54 = fadd contract float %52, %53
  %55 = add nuw nsw i32 %42, 4
  %56 = icmp ugt i32 %42, 59
  %57 = select i1 %56, i32 %42, i32 %55
  %58 = tail call contract float @llvm.bi.slb.shfl.idx.b32.f32(float %54, i32 %57)
  %59 = select i1 %56, float -0.000000e+00, float %54
  %60 = fadd contract float %58, %59
  %61 = add nuw nsw i32 %42, 8
  %62 = icmp ugt i32 %42, 55
  %63 = select i1 %62, i32 %42, i32 %61
  %64 = tail call contract float @llvm.bi.slb.shfl.idx.b32.f32(float %60, i32 %63)
  %65 = select i1 %62, float -0.000000e+00, float %60
  %66 = fadd contract float %64, %65
  %67 = add nuw nsw i32 %42, 16
  %68 = icmp ugt i32 %42, 47
  %69 = select i1 %68, i32 %42, i32 %67
  %70 = tail call contract float @llvm.bi.slb.shfl.idx.b32.f32(float %66, i32 %69)
  %71 = select i1 %68, float -0.000000e+00, float %66
  %72 = fadd contract float %70, %71
  %73 = add nuw nsw i32 %42, 32
  %74 = icmp ugt i32 %42, 31
  %75 = select i1 %74, i32 %42, i32 %73
  %76 = tail call contract float @llvm.bi.slb.shfl.idx.b32.f32(float %72, i32 %75)
  %77 = select i1 %74, float -0.000000e+00, float %72
  %78 = fadd contract float %76, %77
  %79 = icmp eq i32 %42, 0
  br i1 %79, label %80, label %83

80:                                               ; preds = %.loopexit2
  %81 = lshr i32 %38, 6
  %82 = getelementptr inbounds %"struct.cub::BlockReduceWarpReductions<float, 512, 1, 1, 300>::_TempStorage", ptr addrspace(3) @_ZZ16add_rmsnormBlockILj512Ef6__halffEvPT1_S2_llllPKS1_llS4_llPKT2_mmfE12temp_storage, i32 0, i32 1, i32 %81
  store float %78, ptr addrspace(3) %82, align 4, !tbaa !19, !noalias !69
  br label %83

83:                                               ; preds = %80, %.loopexit2
  tail call void @llvm.bi.sl.barrier(), !noalias !69
  %84 = icmp eq i32 %38, 0
  br i1 %84, label %85, label %100

85:                                               ; preds = %83
  %86 = load float, ptr addrspace(3) getelementptr inbounds (%"struct.cub::BlockReduce<float, 512>::TempStorage", ptr addrspace(3) @_ZZ16add_rmsnormBlockILj512Ef6__halffEvPT1_S2_llllPKS1_llS4_llPKT2_mmfE12temp_storage, i32 0, i32 0, i32 0, i32 3), align 4, !tbaa !19, !noalias !69
  %87 = fadd contract float %78, %86
  %88 = load float, ptr addrspace(3) getelementptr inbounds (%"struct.cub::BlockReduce<float, 512>::TempStorage", ptr addrspace(3) @_ZZ16add_rmsnormBlockILj512Ef6__halffEvPT1_S2_llllPKS1_llS4_llPKT2_mmfE12temp_storage, i32 0, i32 0, i32 0, i32 4), align 4, !tbaa !19, !noalias !69
  %89 = fadd contract float %88, %87
  %90 = load float, ptr addrspace(3) getelementptr inbounds (%"struct.cub::BlockReduce<float, 512>::TempStorage", ptr addrspace(3) @_ZZ16add_rmsnormBlockILj512Ef6__halffEvPT1_S2_llllPKS1_llS4_llPKT2_mmfE12temp_storage, i32 0, i32 0, i32 0, i32 5), align 4, !tbaa !19, !noalias !69
  %91 = fadd contract float %90, %89
  %92 = load float, ptr addrspace(3) getelementptr inbounds (%"struct.cub::BlockReduce<float, 512>::TempStorage", ptr addrspace(3) @_ZZ16add_rmsnormBlockILj512Ef6__halffEvPT1_S2_llllPKS1_llS4_llPKT2_mmfE12temp_storage, i32 0, i32 0, i32 0, i32 6), align 4, !tbaa !19, !noalias !69
  %93 = fadd contract float %92, %91
  %94 = load float, ptr addrspace(3) getelementptr inbounds (%"struct.cub::BlockReduce<float, 512>::TempStorage", ptr addrspace(3) @_ZZ16add_rmsnormBlockILj512Ef6__halffEvPT1_S2_llllPKS1_llS4_llPKT2_mmfE12temp_storage, i32 0, i32 0, i32 0, i32 7), align 4, !tbaa !19, !noalias !69
  %95 = fadd contract float %94, %93
  %96 = load float, ptr addrspace(3) getelementptr inbounds (%"struct.cub::BlockReduce<float, 512>::TempStorage", ptr addrspace(3) @_ZZ16add_rmsnormBlockILj512Ef6__halffEvPT1_S2_llllPKS1_llS4_llPKT2_mmfE12temp_storage, i32 0, i32 0, i32 0, i32 8), align 4, !tbaa !19, !noalias !69
  %97 = fadd contract float %96, %95
  %98 = load float, ptr addrspace(3) getelementptr inbounds (%"struct.cub::BlockReduce<float, 512>::TempStorage", ptr addrspace(3) @_ZZ16add_rmsnormBlockILj512Ef6__halffEvPT1_S2_llllPKS1_llS4_llPKT2_mmfE12temp_storage, i32 0, i32 0, i32 0, i32 9), align 4, !tbaa !19, !noalias !69
  %99 = fadd contract float %98, %97
  br label %100

100:                                              ; preds = %85, %83
  %101 = phi float [ %99, %85 ], [ %78, %83 ]
  br i1 %84, label %117, label %153

.preheader:                                       ; preds = %16, %.preheader
  %102 = phi float [ %114, %.preheader ], [ 0.000000e+00, %16 ]
  %103 = phi i64 [ %115, %.preheader ], [ %39, %16 ]
  %104 = getelementptr inbounds %struct.__half, ptr addrspace(1) %29, i64 %103
  %105 = load half, ptr addrspace(1) %104, align 2, !tbaa.struct !24, !alias.scope !63, !noalias !70, !iluvatar.noclobber !18
  %106 = fpext half %105 to float
  %107 = getelementptr inbounds %struct.__half, ptr addrspace(1) %33, i64 %103
  %108 = load half, ptr addrspace(1) %107, align 2, !tbaa.struct !24, !alias.scope !65, !noalias !71, !iluvatar.noclobber !18
  %109 = fpext half %108 to float
  %110 = fadd contract float %106, %109
  %111 = fptrunc float %110 to half
  %112 = getelementptr inbounds %struct.__half, ptr addrspace(1) %37, i64 %103
  store half %111, ptr addrspace(1) %112, align 2, !tbaa !25, !alias.scope !61, !noalias !72
  %113 = fmul contract float %110, %110
  %114 = fadd contract float %102, %113
  %115 = add i64 %103, 512
  %116 = icmp ult i64 %115, %14
  br i1 %116, label %.preheader, label %.loopexit2, !llvm.loop !73

117:                                              ; preds = %100
  %118 = uitofp i64 %14 to float
  %119 = fdiv contract float %101, %118
  %120 = fadd contract float %119, %15
  %121 = tail call float @llvm.fabs.f32(float %120)
  %122 = fcmp contract olt float %121, 0x3810000000000000
  %123 = fmul contract float %120, 0x4170000000000000
  %124 = select i1 %122, float %123, float %120
  %125 = bitcast float %124 to i32
  %126 = add i32 %125, -8388608
  %127 = icmp ult i32 %126, 2130706432
  br i1 %127, label %128, label %149

128:                                              ; preds = %117
  %129 = and i32 %125, 16777215
  %130 = or disjoint i32 %129, 1056964608
  %131 = bitcast i32 %130 to float
  %132 = sub nsw i32 %130, %125
  %133 = add nsw i32 %132, 201326592
  %134 = select i1 %122, i32 %133, i32 %132
  %135 = tail call contract noundef float @llvm.nvvm.rsqrt.approx.ftz.f(float noundef %131) #7
  %136 = fmul contract float %135, %135
  %137 = fneg contract float %136
  %138 = tail call float @llvm.fma.f32(float %135, float %135, float %137)
  %139 = fneg contract float %131
  %140 = tail call float @llvm.fma.f32(float %136, float %139, float 1.000000e+00)
  %141 = tail call float @llvm.fma.f32(float %138, float %139, float %140)
  %142 = tail call float @llvm.fma.f32(float %141, float 3.750000e-01, float 5.000000e-01)
  %143 = fmul contract float %135, %141
  %144 = tail call float @llvm.fma.f32(float %142, float %143, float %135)
  %145 = ashr i32 %134, 1
  %146 = bitcast float %144 to i32
  %147 = add i32 %145, %146
  %148 = bitcast i32 %147 to float
  br label %151

149:                                              ; preds = %117
  %150 = tail call contract noundef float @llvm.nvvm.rsqrt.approx.ftz.f(float noundef %124) #7
  br label %151

151:                                              ; preds = %149, %128
  %152 = phi float [ %148, %128 ], [ %150, %149 ]
  store float %152, ptr addrspace(3) @_ZZ16add_rmsnormBlockILj512Ef6__halffEvPT1_S2_llllPKS1_llS4_llPKT2_mmfE3rms, align 4, !tbaa !19, !noalias !69
  br label %153

153:                                              ; preds = %151, %100
  tail call void @llvm.bi.sl.barrier(), !noalias !69
  br i1 %40, label %154, label %.loopexit

154:                                              ; preds = %153
  %155 = load float, ptr addrspace(3) @_ZZ16add_rmsnormBlockILj512Ef6__halffEvPT1_S2_llllPKS1_llS4_llPKT2_mmfE3rms, align 4, !tbaa !19, !noalias !69
  br label %156

156:                                              ; preds = %156, %154
  %157 = phi i64 [ %39, %154 ], [ %167, %156 ]
  %158 = getelementptr inbounds %struct.__half, ptr addrspace(1) %37, i64 %157
  %159 = load half, ptr addrspace(1) %158, align 2, !tbaa.struct !24, !alias.scope !61, !noalias !72
  %160 = fpext half %159 to float
  %161 = getelementptr inbounds float, ptr addrspace(1) %12, i64 %157
  %162 = load float, ptr addrspace(1) %161, align 4, !tbaa !19, !alias.scope !67, !noalias !74, !iluvatar.noclobber !18
  %163 = fmul contract float %162, %160
  %164 = fmul contract float %155, %163
  %165 = fptrunc float %164 to half
  %166 = getelementptr inbounds %struct.__half, ptr addrspace(1) %25, i64 %157
  store half %165, ptr addrspace(1) %166, align 2, !tbaa !25, !alias.scope !58, !noalias !75
  %167 = add i64 %157, 512
  %168 = icmp ult i64 %167, %14
  br i1 %168, label %156, label %.loopexit, !llvm.loop !76

.loopexit:                                        ; preds = %156, %153
  ret void
}

; Function Attrs: convergent mustprogress norecurse nounwind
define dso_local iluvatar_kernel void @_Z17add_rmsnormKernelILj512Ef13__nv_bfloat16S0_EvPT1_S2_llllPKS1_llS4_llPKT2_mmf(ptr addrspace(1) noalias nocapture noundef writeonly %0, ptr addrspace(1) noalias nocapture noundef %1, i64 noundef %2, i64 noundef %3, i64 noundef %4, i64 noundef %5, ptr addrspace(1) noalias nocapture noundef readonly %6, i64 noundef %7, i64 noundef %8, ptr addrspace(1) noalias nocapture noundef readonly %9, i64 noundef %10, i64 noundef %11, ptr addrspace(1) noalias nocapture noundef readonly %12, i64 noundef %13, i64 noundef %14, float noundef %15) local_unnamed_addr #0 comdat {
  tail call void @llvm.experimental.noalias.scope.decl(metadata !77)
  tail call void @llvm.experimental.noalias.scope.decl(metadata !80)
  tail call void @llvm.experimental.noalias.scope.decl(metadata !82)
  tail call void @llvm.experimental.noalias.scope.decl(metadata !84)
  tail call void @llvm.experimental.noalias.scope.decl(metadata !86)
  %17 = tail call noundef i32 @llvm.nvvm.read.ptx.sreg.ctaid.x(), !range !15
  %18 = zext nneg i32 %17 to i64
  %19 = udiv i64 %18, %13
  %20 = mul i64 %19, %13
  %21 = sub i64 %18, %20
  %22 = mul i64 %19, %2
  %23 = getelementptr inbounds %struct.__nv_bfloat16, ptr addrspace(1) %0, i64 %22
  %24 = mul i64 %21, %3
  %25 = getelementptr inbounds %struct.__nv_bfloat16, ptr addrspace(1) %23, i64 %24
  %26 = mul i64 %19, %7
  %27 = getelementptr inbounds %struct.__nv_bfloat16, ptr addrspace(1) %6, i64 %26
  %28 = mul i64 %21, %8
  %29 = getelementptr inbounds %struct.__nv_bfloat16, ptr addrspace(1) %27, i64 %28
  %30 = mul i64 %19, %10
  %31 = getelementptr inbounds %struct.__nv_bfloat16, ptr addrspace(1) %9, i64 %30
  %32 = mul i64 %21, %11
  %33 = getelementptr inbounds %struct.__nv_bfloat16, ptr addrspace(1) %31, i64 %32
  %34 = mul i64 %19, %4
  %35 = getelementptr inbounds %struct.__nv_bfloat16, ptr addrspace(1) %1, i64 %34
  %36 = mul i64 %21, %5
  %37 = getelementptr inbounds %struct.__nv_bfloat16, ptr addrspace(1) %35, i64 %36
  %38 = tail call noundef i32 @llvm.nvvm.read.ptx.sreg.tid.x(), !range !16
  %39 = zext nneg i32 %38 to i64
  %40 = icmp ult i64 %39, %14
  br i1 %40, label %.preheader, label %.loopexit3

.loopexit3:                                       ; preds = %.preheader, %16
  %41 = phi float [ 0.000000e+00, %16 ], [ %114, %.preheader ]
  %42 = tail call noundef i32 @llvm.bi.lane.id(), !range !17, !noundef !18
  %43 = icmp ne i32 %42, 63
  %44 = zext i1 %43 to i32
  %45 = add nuw nsw i32 %42, %44
  %46 = tail call contract float @llvm.bi.slb.shfl.idx.b32.f32(float %41, i32 %45)
  %47 = select i1 %43, float %41, float -0.000000e+00
  %48 = fadd contract float %46, %47
  %49 = add nuw nsw i32 %42, 2
  %50 = icmp ugt i32 %42, 61
  %51 = select i1 %50, i32 %42, i32 %49
  %52 = tail call contract float @llvm.bi.slb.shfl.idx.b32.f32(float %48, i32 %51)
  %53 = select i1 %50, float -0.000000e+00, float %48
  %54 = fadd contract float %52, %53
  %55 = add nuw nsw i32 %42, 4
  %56 = icmp ugt i32 %42, 59
  %57 = select i1 %56, i32 %42, i32 %55
  %58 = tail call contract float @llvm.bi.slb.shfl.idx.b32.f32(float %54, i32 %57)
  %59 = select i1 %56, float -0.000000e+00, float %54
  %60 = fadd contract float %58, %59
  %61 = add nuw nsw i32 %42, 8
  %62 = icmp ugt i32 %42, 55
  %63 = select i1 %62, i32 %42, i32 %61
  %64 = tail call contract float @llvm.bi.slb.shfl.idx.b32.f32(float %60, i32 %63)
  %65 = select i1 %62, float -0.000000e+00, float %60
  %66 = fadd contract float %64, %65
  %67 = add nuw nsw i32 %42, 16
  %68 = icmp ugt i32 %42, 47
  %69 = select i1 %68, i32 %42, i32 %67
  %70 = tail call contract float @llvm.bi.slb.shfl.idx.b32.f32(float %66, i32 %69)
  %71 = select i1 %68, float -0.000000e+00, float %66
  %72 = fadd contract float %70, %71
  %73 = add nuw nsw i32 %42, 32
  %74 = icmp ugt i32 %42, 31
  %75 = select i1 %74, i32 %42, i32 %73
  %76 = tail call contract float @llvm.bi.slb.shfl.idx.b32.f32(float %72, i32 %75)
  %77 = select i1 %74, float -0.000000e+00, float %72
  %78 = fadd contract float %76, %77
  %79 = icmp eq i32 %42, 0
  br i1 %79, label %80, label %83

80:                                               ; preds = %.loopexit3
  %81 = lshr i32 %38, 6
  %82 = getelementptr inbounds %"struct.cub::BlockReduceWarpReductions<float, 512, 1, 1, 300>::_TempStorage", ptr addrspace(3) @_ZZ16add_rmsnormBlockILj512Ef13__nv_bfloat16S0_EvPT1_S2_llllPKS1_llS4_llPKT2_mmfE12temp_storage, i32 0, i32 1, i32 %81
  store float %78, ptr addrspace(3) %82, align 4, !tbaa !19, !noalias !88
  br label %83

83:                                               ; preds = %80, %.loopexit3
  tail call void @llvm.bi.sl.barrier(), !noalias !88
  %84 = icmp eq i32 %38, 0
  br i1 %84, label %85, label %100

85:                                               ; preds = %83
  %86 = load float, ptr addrspace(3) getelementptr inbounds (%"struct.cub::BlockReduce<float, 512>::TempStorage", ptr addrspace(3) @_ZZ16add_rmsnormBlockILj512Ef13__nv_bfloat16S0_EvPT1_S2_llllPKS1_llS4_llPKT2_mmfE12temp_storage, i32 0, i32 0, i32 0, i32 3), align 4, !tbaa !19, !noalias !88
  %87 = fadd contract float %78, %86
  %88 = load float, ptr addrspace(3) getelementptr inbounds (%"struct.cub::BlockReduce<float, 512>::TempStorage", ptr addrspace(3) @_ZZ16add_rmsnormBlockILj512Ef13__nv_bfloat16S0_EvPT1_S2_llllPKS1_llS4_llPKT2_mmfE12temp_storage, i32 0, i32 0, i32 0, i32 4), align 4, !tbaa !19, !noalias !88
  %89 = fadd contract float %88, %87
  %90 = load float, ptr addrspace(3) getelementptr inbounds (%"struct.cub::BlockReduce<float, 512>::TempStorage", ptr addrspace(3) @_ZZ16add_rmsnormBlockILj512Ef13__nv_bfloat16S0_EvPT1_S2_llllPKS1_llS4_llPKT2_mmfE12temp_storage, i32 0, i32 0, i32 0, i32 5), align 4, !tbaa !19, !noalias !88
  %91 = fadd contract float %90, %89
  %92 = load float, ptr addrspace(3) getelementptr inbounds (%"struct.cub::BlockReduce<float, 512>::TempStorage", ptr addrspace(3) @_ZZ16add_rmsnormBlockILj512Ef13__nv_bfloat16S0_EvPT1_S2_llllPKS1_llS4_llPKT2_mmfE12temp_storage, i32 0, i32 0, i32 0, i32 6), align 4, !tbaa !19, !noalias !88
  %93 = fadd contract float %92, %91
  %94 = load float, ptr addrspace(3) getelementptr inbounds (%"struct.cub::BlockReduce<float, 512>::TempStorage", ptr addrspace(3) @_ZZ16add_rmsnormBlockILj512Ef13__nv_bfloat16S0_EvPT1_S2_llllPKS1_llS4_llPKT2_mmfE12temp_storage, i32 0, i32 0, i32 0, i32 7), align 4, !tbaa !19, !noalias !88
  %95 = fadd contract float %94, %93
  %96 = load float, ptr addrspace(3) getelementptr inbounds (%"struct.cub::BlockReduce<float, 512>::TempStorage", ptr addrspace(3) @_ZZ16add_rmsnormBlockILj512Ef13__nv_bfloat16S0_EvPT1_S2_llllPKS1_llS4_llPKT2_mmfE12temp_storage, i32 0, i32 0, i32 0, i32 8), align 4, !tbaa !19, !noalias !88
  %97 = fadd contract float %96, %95
  %98 = load float, ptr addrspace(3) getelementptr inbounds (%"struct.cub::BlockReduce<float, 512>::TempStorage", ptr addrspace(3) @_ZZ16add_rmsnormBlockILj512Ef13__nv_bfloat16S0_EvPT1_S2_llllPKS1_llS4_llPKT2_mmfE12temp_storage, i32 0, i32 0, i32 0, i32 9), align 4, !tbaa !19, !noalias !88
  %99 = fadd contract float %98, %97
  br label %100

100:                                              ; preds = %85, %83
  %101 = phi float [ %99, %85 ], [ %78, %83 ]
  br i1 %84, label %117, label %153

.preheader:                                       ; preds = %16, %.preheader
  %102 = phi float [ %114, %.preheader ], [ 0.000000e+00, %16 ]
  %103 = phi i64 [ %115, %.preheader ], [ %39, %16 ]
  %104 = getelementptr inbounds %struct.__nv_bfloat16, ptr addrspace(1) %29, i64 %103
  %105 = load bfloat, ptr addrspace(1) %104, align 2, !tbaa.struct !24, !alias.scope !82, !noalias !89, !iluvatar.noclobber !18
  %106 = fpext bfloat %105 to float
  %107 = getelementptr inbounds %struct.__nv_bfloat16, ptr addrspace(1) %33, i64 %103
  %108 = load bfloat, ptr addrspace(1) %107, align 2, !tbaa.struct !24, !alias.scope !84, !noalias !90, !iluvatar.noclobber !18
  %109 = fpext bfloat %108 to float
  %110 = fadd contract float %106, %109
  %111 = fptrunc float %110 to bfloat
  %112 = getelementptr inbounds %struct.__nv_bfloat16, ptr addrspace(1) %37, i64 %103
  store bfloat %111, ptr addrspace(1) %112, align 2, !tbaa !25, !alias.scope !80, !noalias !91
  %113 = fmul contract float %110, %110
  %114 = fadd contract float %102, %113
  %115 = add i64 %103, 512
  %116 = icmp ult i64 %115, %14
  br i1 %116, label %.preheader, label %.loopexit3, !llvm.loop !92

117:                                              ; preds = %100
  %118 = uitofp i64 %14 to float
  %119 = fdiv contract float %101, %118
  %120 = fadd contract float %119, %15
  %121 = tail call float @llvm.fabs.f32(float %120)
  %122 = fcmp contract olt float %121, 0x3810000000000000
  %123 = fmul contract float %120, 0x4170000000000000
  %124 = select i1 %122, float %123, float %120
  %125 = bitcast float %124 to i32
  %126 = add i32 %125, -8388608
  %127 = icmp ult i32 %126, 2130706432
  br i1 %127, label %128, label %149

128:                                              ; preds = %117
  %129 = and i32 %125, 16777215
  %130 = or disjoint i32 %129, 1056964608
  %131 = bitcast i32 %130 to float
  %132 = sub nsw i32 %130, %125
  %133 = add nsw i32 %132, 201326592
  %134 = select i1 %122, i32 %133, i32 %132
  %135 = tail call contract noundef float @llvm.nvvm.rsqrt.approx.ftz.f(float noundef %131) #7
  %136 = fmul contract float %135, %135
  %137 = fneg contract float %136
  %138 = tail call float @llvm.fma.f32(float %135, float %135, float %137)
  %139 = fneg contract float %131
  %140 = tail call float @llvm.fma.f32(float %136, float %139, float 1.000000e+00)
  %141 = tail call float @llvm.fma.f32(float %138, float %139, float %140)
  %142 = tail call float @llvm.fma.f32(float %141, float 3.750000e-01, float 5.000000e-01)
  %143 = fmul contract float %135, %141
  %144 = tail call float @llvm.fma.f32(float %142, float %143, float %135)
  %145 = ashr i32 %134, 1
  %146 = bitcast float %144 to i32
  %147 = add i32 %145, %146
  %148 = bitcast i32 %147 to float
  br label %151

149:                                              ; preds = %117
  %150 = tail call contract noundef float @llvm.nvvm.rsqrt.approx.ftz.f(float noundef %124) #7
  br label %151

151:                                              ; preds = %149, %128
  %152 = phi float [ %148, %128 ], [ %150, %149 ]
  store float %152, ptr addrspace(3) @_ZZ16add_rmsnormBlockILj512Ef13__nv_bfloat16S0_EvPT1_S2_llllPKS1_llS4_llPKT2_mmfE3rms, align 4, !tbaa !19, !noalias !88
  br label %153

153:                                              ; preds = %151, %100
  tail call void @llvm.bi.sl.barrier(), !noalias !88
  br i1 %40, label %154, label %.loopexit

154:                                              ; preds = %153
  %155 = load float, ptr addrspace(3) @_ZZ16add_rmsnormBlockILj512Ef13__nv_bfloat16S0_EvPT1_S2_llllPKS1_llS4_llPKT2_mmfE3rms, align 4, !tbaa !19, !noalias !88
  %156 = xor i64 %39, -1
  %157 = add i64 %156, %14
  %158 = lshr i64 %157, 9
  %159 = add nuw nsw i64 %158, 1
  %160 = icmp ult i64 %157, 512
  br i1 %160, label %.preheader4, label %161

161:                                              ; preds = %154
  %162 = and i64 %159, 72057594037927934
  %163 = shl i64 %162, 9
  %164 = insertelement <2 x float> poison, float %155, i64 0
  %165 = shufflevector <2 x float> %164, <2 x float> poison, <2 x i32> zeroinitializer
  br label %166

166:                                              ; preds = %166, %161
  %167 = phi i64 [ 0, %161 ], [ %192, %166 ]
  %168 = shl i64 %167, 9
  %169 = add i64 %168, %39
  %170 = add i64 %169, 512
  %171 = getelementptr inbounds %struct.__nv_bfloat16, ptr addrspace(1) %37, i64 %169
  %172 = getelementptr inbounds %struct.__nv_bfloat16, ptr addrspace(1) %37, i64 %170
  %173 = load bfloat, ptr addrspace(1) %171, align 2, !tbaa.struct !24, !alias.scope !80, !noalias !91
  %174 = load bfloat, ptr addrspace(1) %172, align 2, !tbaa.struct !24, !alias.scope !80, !noalias !91
  %175 = insertelement <2 x bfloat> poison, bfloat %173, i64 0
  %176 = insertelement <2 x bfloat> %175, bfloat %174, i64 1
  %177 = fpext <2 x bfloat> %176 to <2 x float>
  %178 = getelementptr inbounds %struct.__nv_bfloat16, ptr addrspace(1) %12, i64 %169
  %179 = getelementptr inbounds %struct.__nv_bfloat16, ptr addrspace(1) %12, i64 %170
  %180 = load bfloat, ptr addrspace(1) %178, align 2, !tbaa.struct !24, !alias.scope !86, !noalias !93, !iluvatar.noclobber !18
  %181 = load bfloat, ptr addrspace(1) %179, align 2, !tbaa.struct !24, !alias.scope !86, !noalias !93, !iluvatar.noclobber !18
  %182 = insertelement <2 x bfloat> poison, bfloat %180, i64 0
  %183 = insertelement <2 x bfloat> %182, bfloat %181, i64 1
  %184 = fpext <2 x bfloat> %183 to <2 x float>
  %185 = fmul contract <2 x float> %177, %184
  %186 = fmul contract <2 x float> %165, %185
  %187 = fptrunc <2 x float> %186 to <2 x bfloat>
  %188 = getelementptr inbounds %struct.__nv_bfloat16, ptr addrspace(1) %25, i64 %169
  %189 = getelementptr inbounds %struct.__nv_bfloat16, ptr addrspace(1) %25, i64 %170
  %190 = extractelement <2 x bfloat> %187, i64 0
  store bfloat %190, ptr addrspace(1) %188, align 2, !tbaa !25, !alias.scope !77, !noalias !94
  %191 = extractelement <2 x bfloat> %187, i64 1
  store bfloat %191, ptr addrspace(1) %189, align 2, !tbaa !25, !alias.scope !77, !noalias !94
  %192 = add nuw i64 %167, 2
  %193 = icmp eq i64 %192, %162
  br i1 %193, label %194, label %166, !llvm.loop !95

194:                                              ; preds = %166
  %195 = add i64 %163, %39
  %196 = icmp eq i64 %159, %162
  br i1 %196, label %.loopexit, label %.preheader4

.preheader4:                                      ; preds = %194, %154
  %.ph = phi i64 [ %195, %194 ], [ %39, %154 ]
  br label %197

197:                                              ; preds = %.preheader4, %197
  %198 = phi i64 [ %209, %197 ], [ %.ph, %.preheader4 ]
  %199 = getelementptr inbounds %struct.__nv_bfloat16, ptr addrspace(1) %37, i64 %198
  %200 = load bfloat, ptr addrspace(1) %199, align 2, !tbaa.struct !24, !alias.scope !80, !noalias !91
  %201 = fpext bfloat %200 to float
  %202 = getelementptr inbounds %struct.__nv_bfloat16, ptr addrspace(1) %12, i64 %198
  %203 = load bfloat, ptr addrspace(1) %202, align 2, !tbaa.struct !24, !alias.scope !86, !noalias !93, !iluvatar.noclobber !18
  %204 = fpext bfloat %203 to float
  %205 = fmul contract float %201, %204
  %206 = fmul contract float %155, %205
  %207 = fptrunc float %206 to bfloat
  %208 = getelementptr inbounds %struct.__nv_bfloat16, ptr addrspace(1) %25, i64 %198
  store bfloat %207, ptr addrspace(1) %208, align 2, !tbaa !25, !alias.scope !77, !noalias !94
  %209 = add i64 %198, 512
  %210 = icmp ult i64 %209, %14
  br i1 %210, label %197, label %.loopexit, !llvm.loop !96

.loopexit:                                        ; preds = %197, %194, %153
  ret void
}

; Function Attrs: convergent mustprogress norecurse nounwind
define dso_local iluvatar_kernel void @_Z17add_rmsnormKernelILj512Ef13__nv_bfloat166__halfEvPT1_S3_llllPKS2_llS5_llPKT2_mmf(ptr addrspace(1) noalias nocapture noundef writeonly %0, ptr addrspace(1) noalias nocapture noundef %1, i64 noundef %2, i64 noundef %3, i64 noundef %4, i64 noundef %5, ptr addrspace(1) noalias nocapture noundef readonly %6, i64 noundef %7, i64 noundef %8, ptr addrspace(1) noalias nocapture noundef readonly %9, i64 noundef %10, i64 noundef %11, ptr addrspace(1) noalias nocapture noundef readonly %12, i64 noundef %13, i64 noundef %14, float noundef %15) local_unnamed_addr #0 comdat {
  tail call void @llvm.experimental.noalias.scope.decl(metadata !97)
  tail call void @llvm.experimental.noalias.scope.decl(metadata !100)
  tail call void @llvm.experimental.noalias.scope.decl(metadata !102)
  tail call void @llvm.experimental.noalias.scope.decl(metadata !104)
  tail call void @llvm.experimental.noalias.scope.decl(metadata !106)
  %17 = tail call noundef i32 @llvm.nvvm.read.ptx.sreg.ctaid.x(), !range !15
  %18 = zext nneg i32 %17 to i64
  %19 = udiv i64 %18, %13
  %20 = mul i64 %19, %13
  %21 = sub i64 %18, %20
  %22 = mul i64 %19, %2
  %23 = getelementptr inbounds %struct.__nv_bfloat16, ptr addrspace(1) %0, i64 %22
  %24 = mul i64 %21, %3
  %25 = getelementptr inbounds %struct.__nv_bfloat16, ptr addrspace(1) %23, i64 %24
  %26 = mul i64 %19, %7
  %27 = getelementptr inbounds %struct.__nv_bfloat16, ptr addrspace(1) %6, i64 %26
  %28 = mul i64 %21, %8
  %29 = getelementptr inbounds %struct.__nv_bfloat16, ptr addrspace(1) %27, i64 %28
  %30 = mul i64 %19, %10
  %31 = getelementptr inbounds %struct.__nv_bfloat16, ptr addrspace(1) %9, i64 %30
  %32 = mul i64 %21, %11
  %33 = getelementptr inbounds %struct.__nv_bfloat16, ptr addrspace(1) %31, i64 %32
  %34 = mul i64 %19, %4
  %35 = getelementptr inbounds %struct.__nv_bfloat16, ptr addrspace(1) %1, i64 %34
  %36 = mul i64 %21, %5
  %37 = getelementptr inbounds %struct.__nv_bfloat16, ptr addrspace(1) %35, i64 %36
  %38 = tail call noundef i32 @llvm.nvvm.read.ptx.sreg.tid.x(), !range !16
  %39 = zext nneg i32 %38 to i64
  %40 = icmp ult i64 %39, %14
  br i1 %40, label %.preheader, label %.loopexit3

.loopexit3:                                       ; preds = %.preheader, %16
  %41 = phi float [ 0.000000e+00, %16 ], [ %114, %.preheader ]
  %42 = tail call noundef i32 @llvm.bi.lane.id(), !range !17, !noundef !18
  %43 = icmp ne i32 %42, 63
  %44 = zext i1 %43 to i32
  %45 = add nuw nsw i32 %42, %44
  %46 = tail call contract float @llvm.bi.slb.shfl.idx.b32.f32(float %41, i32 %45)
  %47 = select i1 %43, float %41, float -0.000000e+00
  %48 = fadd contract float %46, %47
  %49 = add nuw nsw i32 %42, 2
  %50 = icmp ugt i32 %42, 61
  %51 = select i1 %50, i32 %42, i32 %49
  %52 = tail call contract float @llvm.bi.slb.shfl.idx.b32.f32(float %48, i32 %51)
  %53 = select i1 %50, float -0.000000e+00, float %48
  %54 = fadd contract float %52, %53
  %55 = add nuw nsw i32 %42, 4
  %56 = icmp ugt i32 %42, 59
  %57 = select i1 %56, i32 %42, i32 %55
  %58 = tail call contract float @llvm.bi.slb.shfl.idx.b32.f32(float %54, i32 %57)
  %59 = select i1 %56, float -0.000000e+00, float %54
  %60 = fadd contract float %58, %59
  %61 = add nuw nsw i32 %42, 8
  %62 = icmp ugt i32 %42, 55
  %63 = select i1 %62, i32 %42, i32 %61
  %64 = tail call contract float @llvm.bi.slb.shfl.idx.b32.f32(float %60, i32 %63)
  %65 = select i1 %62, float -0.000000e+00, float %60
  %66 = fadd contract float %64, %65
  %67 = add nuw nsw i32 %42, 16
  %68 = icmp ugt i32 %42, 47
  %69 = select i1 %68, i32 %42, i32 %67
  %70 = tail call contract float @llvm.bi.slb.shfl.idx.b32.f32(float %66, i32 %69)
  %71 = select i1 %68, float -0.000000e+00, float %66
  %72 = fadd contract float %70, %71
  %73 = add nuw nsw i32 %42, 32
  %74 = icmp ugt i32 %42, 31
  %75 = select i1 %74, i32 %42, i32 %73
  %76 = tail call contract float @llvm.bi.slb.shfl.idx.b32.f32(float %72, i32 %75)
  %77 = select i1 %74, float -0.000000e+00, float %72
  %78 = fadd contract float %76, %77
  %79 = icmp eq i32 %42, 0
  br i1 %79, label %80, label %83

80:                                               ; preds = %.loopexit3
  %81 = lshr i32 %38, 6
  %82 = getelementptr inbounds %"struct.cub::BlockReduceWarpReductions<float, 512, 1, 1, 300>::_TempStorage", ptr addrspace(3) @_ZZ16add_rmsnormBlockILj512Ef13__nv_bfloat166__halfEvPT1_S3_llllPKS2_llS5_llPKT2_mmfE12temp_storage, i32 0, i32 1, i32 %81
  store float %78, ptr addrspace(3) %82, align 4, !tbaa !19, !noalias !108
  br label %83

83:                                               ; preds = %80, %.loopexit3
  tail call void @llvm.bi.sl.barrier(), !noalias !108
  %84 = icmp eq i32 %38, 0
  br i1 %84, label %85, label %100

85:                                               ; preds = %83
  %86 = load float, ptr addrspace(3) getelementptr inbounds (%"struct.cub::BlockReduce<float, 512>::TempStorage", ptr addrspace(3) @_ZZ16add_rmsnormBlockILj512Ef13__nv_bfloat166__halfEvPT1_S3_llllPKS2_llS5_llPKT2_mmfE12temp_storage, i32 0, i32 0, i32 0, i32 3), align 4, !tbaa !19, !noalias !108
  %87 = fadd contract float %78, %86
  %88 = load float, ptr addrspace(3) getelementptr inbounds (%"struct.cub::BlockReduce<float, 512>::TempStorage", ptr addrspace(3) @_ZZ16add_rmsnormBlockILj512Ef13__nv_bfloat166__halfEvPT1_S3_llllPKS2_llS5_llPKT2_mmfE12temp_storage, i32 0, i32 0, i32 0, i32 4), align 4, !tbaa !19, !noalias !108
  %89 = fadd contract float %88, %87
  %90 = load float, ptr addrspace(3) getelementptr inbounds (%"struct.cub::BlockReduce<float, 512>::TempStorage", ptr addrspace(3) @_ZZ16add_rmsnormBlockILj512Ef13__nv_bfloat166__halfEvPT1_S3_llllPKS2_llS5_llPKT2_mmfE12temp_storage, i32 0, i32 0, i32 0, i32 5), align 4, !tbaa !19, !noalias !108
  %91 = fadd contract float %90, %89
  %92 = load float, ptr addrspace(3) getelementptr inbounds (%"struct.cub::BlockReduce<float, 512>::TempStorage", ptr addrspace(3) @_ZZ16add_rmsnormBlockILj512Ef13__nv_bfloat166__halfEvPT1_S3_llllPKS2_llS5_llPKT2_mmfE12temp_storage, i32 0, i32 0, i32 0, i32 6), align 4, !tbaa !19, !noalias !108
  %93 = fadd contract float %92, %91
  %94 = load float, ptr addrspace(3) getelementptr inbounds (%"struct.cub::BlockReduce<float, 512>::TempStorage", ptr addrspace(3) @_ZZ16add_rmsnormBlockILj512Ef13__nv_bfloat166__halfEvPT1_S3_llllPKS2_llS5_llPKT2_mmfE12temp_storage, i32 0, i32 0, i32 0, i32 7), align 4, !tbaa !19, !noalias !108
  %95 = fadd contract float %94, %93
  %96 = load float, ptr addrspace(3) getelementptr inbounds (%"struct.cub::BlockReduce<float, 512>::TempStorage", ptr addrspace(3) @_ZZ16add_rmsnormBlockILj512Ef13__nv_bfloat166__halfEvPT1_S3_llllPKS2_llS5_llPKT2_mmfE12temp_storage, i32 0, i32 0, i32 0, i32 8), align 4, !tbaa !19, !noalias !108
  %97 = fadd contract float %96, %95
  %98 = load float, ptr addrspace(3) getelementptr inbounds (%"struct.cub::BlockReduce<float, 512>::TempStorage", ptr addrspace(3) @_ZZ16add_rmsnormBlockILj512Ef13__nv_bfloat166__halfEvPT1_S3_llllPKS2_llS5_llPKT2_mmfE12temp_storage, i32 0, i32 0, i32 0, i32 9), align 4, !tbaa !19, !noalias !108
  %99 = fadd contract float %98, %97
  br label %100

100:                                              ; preds = %85, %83
  %101 = phi float [ %99, %85 ], [ %78, %83 ]
  br i1 %84, label %117, label %153

.preheader:                                       ; preds = %16, %.preheader
  %102 = phi float [ %114, %.preheader ], [ 0.000000e+00, %16 ]
  %103 = phi i64 [ %115, %.preheader ], [ %39, %16 ]
  %104 = getelementptr inbounds %struct.__nv_bfloat16, ptr addrspace(1) %29, i64 %103
  %105 = load bfloat, ptr addrspace(1) %104, align 2, !tbaa.struct !24, !alias.scope !102, !noalias !109, !iluvatar.noclobber !18
  %106 = fpext bfloat %105 to float
  %107 = getelementptr inbounds %struct.__nv_bfloat16, ptr addrspace(1) %33, i64 %103
  %108 = load bfloat, ptr addrspace(1) %107, align 2, !tbaa.struct !24, !alias.scope !104, !noalias !110, !iluvatar.noclobber !18
  %109 = fpext bfloat %108 to float
  %110 = fadd contract float %106, %109
  %111 = fptrunc float %110 to bfloat
  %112 = getelementptr inbounds %struct.__nv_bfloat16, ptr addrspace(1) %37, i64 %103
  store bfloat %111, ptr addrspace(1) %112, align 2, !tbaa !25, !alias.scope !100, !noalias !111
  %113 = fmul contract float %110, %110
  %114 = fadd contract float %102, %113
  %115 = add i64 %103, 512
  %116 = icmp ult i64 %115, %14
  br i1 %116, label %.preheader, label %.loopexit3, !llvm.loop !112

117:                                              ; preds = %100
  %118 = uitofp i64 %14 to float
  %119 = fdiv contract float %101, %118
  %120 = fadd contract float %119, %15
  %121 = tail call float @llvm.fabs.f32(float %120)
  %122 = fcmp contract olt float %121, 0x3810000000000000
  %123 = fmul contract float %120, 0x4170000000000000
  %124 = select i1 %122, float %123, float %120
  %125 = bitcast float %124 to i32
  %126 = add i32 %125, -8388608
  %127 = icmp ult i32 %126, 2130706432
  br i1 %127, label %128, label %149

128:                                              ; preds = %117
  %129 = and i32 %125, 16777215
  %130 = or disjoint i32 %129, 1056964608
  %131 = bitcast i32 %130 to float
  %132 = sub nsw i32 %130, %125
  %133 = add nsw i32 %132, 201326592
  %134 = select i1 %122, i32 %133, i32 %132
  %135 = tail call contract noundef float @llvm.nvvm.rsqrt.approx.ftz.f(float noundef %131) #7
  %136 = fmul contract float %135, %135
  %137 = fneg contract float %136
  %138 = tail call float @llvm.fma.f32(float %135, float %135, float %137)
  %139 = fneg contract float %131
  %140 = tail call float @llvm.fma.f32(float %136, float %139, float 1.000000e+00)
  %141 = tail call float @llvm.fma.f32(float %138, float %139, float %140)
  %142 = tail call float @llvm.fma.f32(float %141, float 3.750000e-01, float 5.000000e-01)
  %143 = fmul contract float %135, %141
  %144 = tail call float @llvm.fma.f32(float %142, float %143, float %135)
  %145 = ashr i32 %134, 1
  %146 = bitcast float %144 to i32
  %147 = add i32 %145, %146
  %148 = bitcast i32 %147 to float
  br label %151

149:                                              ; preds = %117
  %150 = tail call contract noundef float @llvm.nvvm.rsqrt.approx.ftz.f(float noundef %124) #7
  br label %151

151:                                              ; preds = %149, %128
  %152 = phi float [ %148, %128 ], [ %150, %149 ]
  store float %152, ptr addrspace(3) @_ZZ16add_rmsnormBlockILj512Ef13__nv_bfloat166__halfEvPT1_S3_llllPKS2_llS5_llPKT2_mmfE3rms, align 4, !tbaa !19, !noalias !108
  br label %153

153:                                              ; preds = %151, %100
  tail call void @llvm.bi.sl.barrier(), !noalias !108
  br i1 %40, label %154, label %.loopexit

154:                                              ; preds = %153
  %155 = load float, ptr addrspace(3) @_ZZ16add_rmsnormBlockILj512Ef13__nv_bfloat166__halfEvPT1_S3_llllPKS2_llS5_llPKT2_mmfE3rms, align 4, !tbaa !19, !noalias !108
  %156 = xor i64 %39, -1
  %157 = add i64 %156, %14
  %158 = lshr i64 %157, 9
  %159 = add nuw nsw i64 %158, 1
  %160 = icmp ult i64 %157, 512
  br i1 %160, label %.preheader4, label %161

161:                                              ; preds = %154
  %162 = and i64 %159, 72057594037927934
  %163 = shl i64 %162, 9
  %164 = insertelement <2 x float> poison, float %155, i64 0
  %165 = shufflevector <2 x float> %164, <2 x float> poison, <2 x i32> zeroinitializer
  br label %166

166:                                              ; preds = %166, %161
  %167 = phi i64 [ 0, %161 ], [ %192, %166 ]
  %168 = shl i64 %167, 9
  %169 = add i64 %168, %39
  %170 = add i64 %169, 512
  %171 = getelementptr inbounds %struct.__nv_bfloat16, ptr addrspace(1) %37, i64 %169
  %172 = getelementptr inbounds %struct.__nv_bfloat16, ptr addrspace(1) %37, i64 %170
  %173 = load bfloat, ptr addrspace(1) %171, align 2, !tbaa.struct !24, !alias.scope !100, !noalias !111
  %174 = load bfloat, ptr addrspace(1) %172, align 2, !tbaa.struct !24, !alias.scope !100, !noalias !111
  %175 = insertelement <2 x bfloat> poison, bfloat %173, i64 0
  %176 = insertelement <2 x bfloat> %175, bfloat %174, i64 1
  %177 = fpext <2 x bfloat> %176 to <2 x float>
  %178 = getelementptr inbounds %struct.__half, ptr addrspace(1) %12, i64 %169
  %179 = getelementptr inbounds %struct.__half, ptr addrspace(1) %12, i64 %170
  %180 = load half, ptr addrspace(1) %178, align 2, !tbaa.struct !24, !alias.scope !106, !noalias !113, !iluvatar.noclobber !18
  %181 = load half, ptr addrspace(1) %179, align 2, !tbaa.struct !24, !alias.scope !106, !noalias !113, !iluvatar.noclobber !18
  %182 = insertelement <2 x half> poison, half %180, i64 0
  %183 = insertelement <2 x half> %182, half %181, i64 1
  %184 = fpext <2 x half> %183 to <2 x float>
  %185 = fmul contract <2 x float> %177, %184
  %186 = fmul contract <2 x float> %165, %185
  %187 = fptrunc <2 x float> %186 to <2 x bfloat>
  %188 = getelementptr inbounds %struct.__nv_bfloat16, ptr addrspace(1) %25, i64 %169
  %189 = getelementptr inbounds %struct.__nv_bfloat16, ptr addrspace(1) %25, i64 %170
  %190 = extractelement <2 x bfloat> %187, i64 0
  store bfloat %190, ptr addrspace(1) %188, align 2, !tbaa !25, !alias.scope !97, !noalias !114
  %191 = extractelement <2 x bfloat> %187, i64 1
  store bfloat %191, ptr addrspace(1) %189, align 2, !tbaa !25, !alias.scope !97, !noalias !114
  %192 = add nuw i64 %167, 2
  %193 = icmp eq i64 %192, %162
  br i1 %193, label %194, label %166, !llvm.loop !115

194:                                              ; preds = %166
  %195 = add i64 %163, %39
  %196 = icmp eq i64 %159, %162
  br i1 %196, label %.loopexit, label %.preheader4

.preheader4:                                      ; preds = %194, %154
  %.ph = phi i64 [ %195, %194 ], [ %39, %154 ]
  br label %197

197:                                              ; preds = %.preheader4, %197
  %198 = phi i64 [ %209, %197 ], [ %.ph, %.preheader4 ]
  %199 = getelementptr inbounds %struct.__nv_bfloat16, ptr addrspace(1) %37, i64 %198
  %200 = load bfloat, ptr addrspace(1) %199, align 2, !tbaa.struct !24, !alias.scope !100, !noalias !111
  %201 = fpext bfloat %200 to float
  %202 = getelementptr inbounds %struct.__half, ptr addrspace(1) %12, i64 %198
  %203 = load half, ptr addrspace(1) %202, align 2, !tbaa.struct !24, !alias.scope !106, !noalias !113, !iluvatar.noclobber !18
  %204 = fpext half %203 to float
  %205 = fmul contract float %201, %204
  %206 = fmul contract float %155, %205
  %207 = fptrunc float %206 to bfloat
  %208 = getelementptr inbounds %struct.__nv_bfloat16, ptr addrspace(1) %25, i64 %198
  store bfloat %207, ptr addrspace(1) %208, align 2, !tbaa !25, !alias.scope !97, !noalias !114
  %209 = add i64 %198, 512
  %210 = icmp ult i64 %209, %14
  br i1 %210, label %197, label %.loopexit, !llvm.loop !116

.loopexit:                                        ; preds = %197, %194, %153
  ret void
}

; Function Attrs: convergent mustprogress norecurse nounwind
define dso_local iluvatar_kernel void @_Z17add_rmsnormKernelILj512Ef13__nv_bfloat16fEvPT1_S2_llllPKS1_llS4_llPKT2_mmf(ptr addrspace(1) noalias nocapture noundef writeonly %0, ptr addrspace(1) noalias nocapture noundef %1, i64 noundef %2, i64 noundef %3, i64 noundef %4, i64 noundef %5, ptr addrspace(1) noalias nocapture noundef readonly %6, i64 noundef %7, i64 noundef %8, ptr addrspace(1) noalias nocapture noundef readonly %9, i64 noundef %10, i64 noundef %11, ptr addrspace(1) noalias nocapture noundef readonly %12, i64 noundef %13, i64 noundef %14, float noundef %15) local_unnamed_addr #0 comdat {
  tail call void @llvm.experimental.noalias.scope.decl(metadata !117)
  tail call void @llvm.experimental.noalias.scope.decl(metadata !120)
  tail call void @llvm.experimental.noalias.scope.decl(metadata !122)
  tail call void @llvm.experimental.noalias.scope.decl(metadata !124)
  tail call void @llvm.experimental.noalias.scope.decl(metadata !126)
  %17 = tail call noundef i32 @llvm.nvvm.read.ptx.sreg.ctaid.x(), !range !15
  %18 = zext nneg i32 %17 to i64
  %19 = udiv i64 %18, %13
  %20 = mul i64 %19, %13
  %21 = sub i64 %18, %20
  %22 = mul i64 %19, %2
  %23 = getelementptr inbounds %struct.__nv_bfloat16, ptr addrspace(1) %0, i64 %22
  %24 = mul i64 %21, %3
  %25 = getelementptr inbounds %struct.__nv_bfloat16, ptr addrspace(1) %23, i64 %24
  %26 = mul i64 %19, %7
  %27 = getelementptr inbounds %struct.__nv_bfloat16, ptr addrspace(1) %6, i64 %26
  %28 = mul i64 %21, %8
  %29 = getelementptr inbounds %struct.__nv_bfloat16, ptr addrspace(1) %27, i64 %28
  %30 = mul i64 %19, %10
  %31 = getelementptr inbounds %struct.__nv_bfloat16, ptr addrspace(1) %9, i64 %30
  %32 = mul i64 %21, %11
  %33 = getelementptr inbounds %struct.__nv_bfloat16, ptr addrspace(1) %31, i64 %32
  %34 = mul i64 %19, %4
  %35 = getelementptr inbounds %struct.__nv_bfloat16, ptr addrspace(1) %1, i64 %34
  %36 = mul i64 %21, %5
  %37 = getelementptr inbounds %struct.__nv_bfloat16, ptr addrspace(1) %35, i64 %36
  %38 = tail call noundef i32 @llvm.nvvm.read.ptx.sreg.tid.x(), !range !16
  %39 = zext nneg i32 %38 to i64
  %40 = icmp ult i64 %39, %14
  br i1 %40, label %.preheader, label %.loopexit2

.loopexit2:                                       ; preds = %.preheader, %16
  %41 = phi float [ 0.000000e+00, %16 ], [ %114, %.preheader ]
  %42 = tail call noundef i32 @llvm.bi.lane.id(), !range !17, !noundef !18
  %43 = icmp ne i32 %42, 63
  %44 = zext i1 %43 to i32
  %45 = add nuw nsw i32 %42, %44
  %46 = tail call contract float @llvm.bi.slb.shfl.idx.b32.f32(float %41, i32 %45)
  %47 = select i1 %43, float %41, float -0.000000e+00
  %48 = fadd contract float %46, %47
  %49 = add nuw nsw i32 %42, 2
  %50 = icmp ugt i32 %42, 61
  %51 = select i1 %50, i32 %42, i32 %49
  %52 = tail call contract float @llvm.bi.slb.shfl.idx.b32.f32(float %48, i32 %51)
  %53 = select i1 %50, float -0.000000e+00, float %48
  %54 = fadd contract float %52, %53
  %55 = add nuw nsw i32 %42, 4
  %56 = icmp ugt i32 %42, 59
  %57 = select i1 %56, i32 %42, i32 %55
  %58 = tail call contract float @llvm.bi.slb.shfl.idx.b32.f32(float %54, i32 %57)
  %59 = select i1 %56, float -0.000000e+00, float %54
  %60 = fadd contract float %58, %59
  %61 = add nuw nsw i32 %42, 8
  %62 = icmp ugt i32 %42, 55
  %63 = select i1 %62, i32 %42, i32 %61
  %64 = tail call contract float @llvm.bi.slb.shfl.idx.b32.f32(float %60, i32 %63)
  %65 = select i1 %62, float -0.000000e+00, float %60
  %66 = fadd contract float %64, %65
  %67 = add nuw nsw i32 %42, 16
  %68 = icmp ugt i32 %42, 47
  %69 = select i1 %68, i32 %42, i32 %67
  %70 = tail call contract float @llvm.bi.slb.shfl.idx.b32.f32(float %66, i32 %69)
  %71 = select i1 %68, float -0.000000e+00, float %66
  %72 = fadd contract float %70, %71
  %73 = add nuw nsw i32 %42, 32
  %74 = icmp ugt i32 %42, 31
  %75 = select i1 %74, i32 %42, i32 %73
  %76 = tail call contract float @llvm.bi.slb.shfl.idx.b32.f32(float %72, i32 %75)
  %77 = select i1 %74, float -0.000000e+00, float %72
  %78 = fadd contract float %76, %77
  %79 = icmp eq i32 %42, 0
  br i1 %79, label %80, label %83

80:                                               ; preds = %.loopexit2
  %81 = lshr i32 %38, 6
  %82 = getelementptr inbounds %"struct.cub::BlockReduceWarpReductions<float, 512, 1, 1, 300>::_TempStorage", ptr addrspace(3) @_ZZ16add_rmsnormBlockILj512Ef13__nv_bfloat16fEvPT1_S2_llllPKS1_llS4_llPKT2_mmfE12temp_storage, i32 0, i32 1, i32 %81
  store float %78, ptr addrspace(3) %82, align 4, !tbaa !19, !noalias !128
  br label %83

83:                                               ; preds = %80, %.loopexit2
  tail call void @llvm.bi.sl.barrier(), !noalias !128
  %84 = icmp eq i32 %38, 0
  br i1 %84, label %85, label %100

85:                                               ; preds = %83
  %86 = load float, ptr addrspace(3) getelementptr inbounds (%"struct.cub::BlockReduce<float, 512>::TempStorage", ptr addrspace(3) @_ZZ16add_rmsnormBlockILj512Ef13__nv_bfloat16fEvPT1_S2_llllPKS1_llS4_llPKT2_mmfE12temp_storage, i32 0, i32 0, i32 0, i32 3), align 4, !tbaa !19, !noalias !128
  %87 = fadd contract float %78, %86
  %88 = load float, ptr addrspace(3) getelementptr inbounds (%"struct.cub::BlockReduce<float, 512>::TempStorage", ptr addrspace(3) @_ZZ16add_rmsnormBlockILj512Ef13__nv_bfloat16fEvPT1_S2_llllPKS1_llS4_llPKT2_mmfE12temp_storage, i32 0, i32 0, i32 0, i32 4), align 4, !tbaa !19, !noalias !128
  %89 = fadd contract float %88, %87
  %90 = load float, ptr addrspace(3) getelementptr inbounds (%"struct.cub::BlockReduce<float, 512>::TempStorage", ptr addrspace(3) @_ZZ16add_rmsnormBlockILj512Ef13__nv_bfloat16fEvPT1_S2_llllPKS1_llS4_llPKT2_mmfE12temp_storage, i32 0, i32 0, i32 0, i32 5), align 4, !tbaa !19, !noalias !128
  %91 = fadd contract float %90, %89
  %92 = load float, ptr addrspace(3) getelementptr inbounds (%"struct.cub::BlockReduce<float, 512>::TempStorage", ptr addrspace(3) @_ZZ16add_rmsnormBlockILj512Ef13__nv_bfloat16fEvPT1_S2_llllPKS1_llS4_llPKT2_mmfE12temp_storage, i32 0, i32 0, i32 0, i32 6), align 4, !tbaa !19, !noalias !128
  %93 = fadd contract float %92, %91
  %94 = load float, ptr addrspace(3) getelementptr inbounds (%"struct.cub::BlockReduce<float, 512>::TempStorage", ptr addrspace(3) @_ZZ16add_rmsnormBlockILj512Ef13__nv_bfloat16fEvPT1_S2_llllPKS1_llS4_llPKT2_mmfE12temp_storage, i32 0, i32 0, i32 0, i32 7), align 4, !tbaa !19, !noalias !128
  %95 = fadd contract float %94, %93
  %96 = load float, ptr addrspace(3) getelementptr inbounds (%"struct.cub::BlockReduce<float, 512>::TempStorage", ptr addrspace(3) @_ZZ16add_rmsnormBlockILj512Ef13__nv_bfloat16fEvPT1_S2_llllPKS1_llS4_llPKT2_mmfE12temp_storage, i32 0, i32 0, i32 0, i32 8), align 4, !tbaa !19, !noalias !128
  %97 = fadd contract float %96, %95
  %98 = load float, ptr addrspace(3) getelementptr inbounds (%"struct.cub::BlockReduce<float, 512>::TempStorage", ptr addrspace(3) @_ZZ16add_rmsnormBlockILj512Ef13__nv_bfloat16fEvPT1_S2_llllPKS1_llS4_llPKT2_mmfE12temp_storage, i32 0, i32 0, i32 0, i32 9), align 4, !tbaa !19, !noalias !128
  %99 = fadd contract float %98, %97
  br label %100

100:                                              ; preds = %85, %83
  %101 = phi float [ %99, %85 ], [ %78, %83 ]
  br i1 %84, label %117, label %153

.preheader:                                       ; preds = %16, %.preheader
  %102 = phi float [ %114, %.preheader ], [ 0.000000e+00, %16 ]
  %103 = phi i64 [ %115, %.preheader ], [ %39, %16 ]
  %104 = getelementptr inbounds %struct.__nv_bfloat16, ptr addrspace(1) %29, i64 %103
  %105 = load bfloat, ptr addrspace(1) %104, align 2, !tbaa.struct !24, !alias.scope !122, !noalias !129, !iluvatar.noclobber !18
  %106 = fpext bfloat %105 to float
  %107 = getelementptr inbounds %struct.__nv_bfloat16, ptr addrspace(1) %33, i64 %103
  %108 = load bfloat, ptr addrspace(1) %107, align 2, !tbaa.struct !24, !alias.scope !124, !noalias !130, !iluvatar.noclobber !18
  %109 = fpext bfloat %108 to float
  %110 = fadd contract float %106, %109
  %111 = fptrunc float %110 to bfloat
  %112 = getelementptr inbounds %struct.__nv_bfloat16, ptr addrspace(1) %37, i64 %103
  store bfloat %111, ptr addrspace(1) %112, align 2, !tbaa !25, !alias.scope !120, !noalias !131
  %113 = fmul contract float %110, %110
  %114 = fadd contract float %102, %113
  %115 = add i64 %103, 512
  %116 = icmp ult i64 %115, %14
  br i1 %116, label %.preheader, label %.loopexit2, !llvm.loop !132

117:                                              ; preds = %100
  %118 = uitofp i64 %14 to float
  %119 = fdiv contract float %101, %118
  %120 = fadd contract float %119, %15
  %121 = tail call float @llvm.fabs.f32(float %120)
  %122 = fcmp contract olt float %121, 0x3810000000000000
  %123 = fmul contract float %120, 0x4170000000000000
  %124 = select i1 %122, float %123, float %120
  %125 = bitcast float %124 to i32
  %126 = add i32 %125, -8388608
  %127 = icmp ult i32 %126, 2130706432
  br i1 %127, label %128, label %149

128:                                              ; preds = %117
  %129 = and i32 %125, 16777215
  %130 = or disjoint i32 %129, 1056964608
  %131 = bitcast i32 %130 to float
  %132 = sub nsw i32 %130, %125
  %133 = add nsw i32 %132, 201326592
  %134 = select i1 %122, i32 %133, i32 %132
  %135 = tail call contract noundef float @llvm.nvvm.rsqrt.approx.ftz.f(float noundef %131) #7
  %136 = fmul contract float %135, %135
  %137 = fneg contract float %136
  %138 = tail call float @llvm.fma.f32(float %135, float %135, float %137)
  %139 = fneg contract float %131
  %140 = tail call float @llvm.fma.f32(float %136, float %139, float 1.000000e+00)
  %141 = tail call float @llvm.fma.f32(float %138, float %139, float %140)
  %142 = tail call float @llvm.fma.f32(float %141, float 3.750000e-01, float 5.000000e-01)
  %143 = fmul contract float %135, %141
  %144 = tail call float @llvm.fma.f32(float %142, float %143, float %135)
  %145 = ashr i32 %134, 1
  %146 = bitcast float %144 to i32
  %147 = add i32 %145, %146
  %148 = bitcast i32 %147 to float
  br label %151

149:                                              ; preds = %117
  %150 = tail call contract noundef float @llvm.nvvm.rsqrt.approx.ftz.f(float noundef %124) #7
  br label %151

151:                                              ; preds = %149, %128
  %152 = phi float [ %148, %128 ], [ %150, %149 ]
  store float %152, ptr addrspace(3) @_ZZ16add_rmsnormBlockILj512Ef13__nv_bfloat16fEvPT1_S2_llllPKS1_llS4_llPKT2_mmfE3rms, align 4, !tbaa !19, !noalias !128
  br label %153

153:                                              ; preds = %151, %100
  tail call void @llvm.bi.sl.barrier(), !noalias !128
  br i1 %40, label %154, label %.loopexit

154:                                              ; preds = %153
  %155 = load float, ptr addrspace(3) @_ZZ16add_rmsnormBlockILj512Ef13__nv_bfloat16fEvPT1_S2_llllPKS1_llS4_llPKT2_mmfE3rms, align 4, !tbaa !19, !noalias !128
  br label %156

156:                                              ; preds = %156, %154
  %157 = phi i64 [ %39, %154 ], [ %167, %156 ]
  %158 = getelementptr inbounds %struct.__nv_bfloat16, ptr addrspace(1) %37, i64 %157
  %159 = load bfloat, ptr addrspace(1) %158, align 2, !tbaa.struct !24, !alias.scope !120, !noalias !131
  %160 = fpext bfloat %159 to float
  %161 = getelementptr inbounds float, ptr addrspace(1) %12, i64 %157
  %162 = load float, ptr addrspace(1) %161, align 4, !tbaa !19, !alias.scope !126, !noalias !133, !iluvatar.noclobber !18
  %163 = fmul contract float %162, %160
  %164 = fmul contract float %155, %163
  %165 = fptrunc float %164 to bfloat
  %166 = getelementptr inbounds %struct.__nv_bfloat16, ptr addrspace(1) %25, i64 %157
  store bfloat %165, ptr addrspace(1) %166, align 2, !tbaa !25, !alias.scope !117, !noalias !134
  %167 = add i64 %157, 512
  %168 = icmp ult i64 %167, %14
  br i1 %168, label %156, label %.loopexit, !llvm.loop !135

.loopexit:                                        ; preds = %156, %153
  ret void
}

; Function Attrs: convergent mustprogress norecurse nounwind
define dso_local iluvatar_kernel void @_Z17add_rmsnormKernelILj512EfffEvPT1_S1_llllPKS0_llS3_llPKT2_mmf(ptr addrspace(1) noalias nocapture noundef writeonly %0, ptr addrspace(1) noalias nocapture noundef %1, i64 noundef %2, i64 noundef %3, i64 noundef %4, i64 noundef %5, ptr addrspace(1) noalias nocapture noundef readonly %6, i64 noundef %7, i64 noundef %8, ptr addrspace(1) noalias nocapture noundef readonly %9, i64 noundef %10, i64 noundef %11, ptr addrspace(1) noalias nocapture noundef readonly %12, i64 noundef %13, i64 noundef %14, float noundef %15) local_unnamed_addr #0 comdat {
  tail call void @llvm.experimental.noalias.scope.decl(metadata !136)
  tail call void @llvm.experimental.noalias.scope.decl(metadata !139)
  tail call void @llvm.experimental.noalias.scope.decl(metadata !141)
  tail call void @llvm.experimental.noalias.scope.decl(metadata !143)
  tail call void @llvm.experimental.noalias.scope.decl(metadata !145)
  %17 = tail call noundef i32 @llvm.nvvm.read.ptx.sreg.ctaid.x(), !range !15
  %18 = zext nneg i32 %17 to i64
  %19 = udiv i64 %18, %13
  %20 = mul i64 %19, %13
  %21 = sub i64 %18, %20
  %22 = mul i64 %19, %2
  %23 = getelementptr inbounds float, ptr addrspace(1) %0, i64 %22
  %24 = mul i64 %21, %3
  %25 = getelementptr inbounds float, ptr addrspace(1) %23, i64 %24
  %26 = mul i64 %19, %7
  %27 = getelementptr inbounds float, ptr addrspace(1) %6, i64 %26
  %28 = mul i64 %21, %8
  %29 = getelementptr inbounds float, ptr addrspace(1) %27, i64 %28
  %30 = mul i64 %19, %10
  %31 = getelementptr inbounds float, ptr addrspace(1) %9, i64 %30
  %32 = mul i64 %21, %11
  %33 = getelementptr inbounds float, ptr addrspace(1) %31, i64 %32
  %34 = mul i64 %19, %4
  %35 = getelementptr inbounds float, ptr addrspace(1) %1, i64 %34
  %36 = mul i64 %21, %5
  %37 = getelementptr inbounds float, ptr addrspace(1) %35, i64 %36
  %38 = tail call noundef i32 @llvm.nvvm.read.ptx.sreg.tid.x(), !range !16
  %39 = zext nneg i32 %38 to i64
  %40 = icmp ult i64 %39, %14
  br i1 %40, label %.preheader, label %.loopexit2

.loopexit2:                                       ; preds = %.preheader, %16
  %41 = phi float [ 0.000000e+00, %16 ], [ %111, %.preheader ]
  %42 = tail call noundef i32 @llvm.bi.lane.id(), !range !17, !noundef !18
  %43 = icmp ne i32 %42, 63
  %44 = zext i1 %43 to i32
  %45 = add nuw nsw i32 %42, %44
  %46 = tail call contract float @llvm.bi.slb.shfl.idx.b32.f32(float %41, i32 %45)
  %47 = select i1 %43, float %41, float -0.000000e+00
  %48 = fadd contract float %46, %47
  %49 = add nuw nsw i32 %42, 2
  %50 = icmp ugt i32 %42, 61
  %51 = select i1 %50, i32 %42, i32 %49
  %52 = tail call contract float @llvm.bi.slb.shfl.idx.b32.f32(float %48, i32 %51)
  %53 = select i1 %50, float -0.000000e+00, float %48
  %54 = fadd contract float %52, %53
  %55 = add nuw nsw i32 %42, 4
  %56 = icmp ugt i32 %42, 59
  %57 = select i1 %56, i32 %42, i32 %55
  %58 = tail call contract float @llvm.bi.slb.shfl.idx.b32.f32(float %54, i32 %57)
  %59 = select i1 %56, float -0.000000e+00, float %54
  %60 = fadd contract float %58, %59
  %61 = add nuw nsw i32 %42, 8
  %62 = icmp ugt i32 %42, 55
  %63 = select i1 %62, i32 %42, i32 %61
  %64 = tail call contract float @llvm.bi.slb.shfl.idx.b32.f32(float %60, i32 %63)
  %65 = select i1 %62, float -0.000000e+00, float %60
  %66 = fadd contract float %64, %65
  %67 = add nuw nsw i32 %42, 16
  %68 = icmp ugt i32 %42, 47
  %69 = select i1 %68, i32 %42, i32 %67
  %70 = tail call contract float @llvm.bi.slb.shfl.idx.b32.f32(float %66, i32 %69)
  %71 = select i1 %68, float -0.000000e+00, float %66
  %72 = fadd contract float %70, %71
  %73 = add nuw nsw i32 %42, 32
  %74 = icmp ugt i32 %42, 31
  %75 = select i1 %74, i32 %42, i32 %73
  %76 = tail call contract float @llvm.bi.slb.shfl.idx.b32.f32(float %72, i32 %75)
  %77 = select i1 %74, float -0.000000e+00, float %72
  %78 = fadd contract float %76, %77
  %79 = icmp eq i32 %42, 0
  br i1 %79, label %80, label %83

80:                                               ; preds = %.loopexit2
  %81 = lshr i32 %38, 6
  %82 = getelementptr inbounds %"struct.cub::BlockReduceWarpReductions<float, 512, 1, 1, 300>::_TempStorage", ptr addrspace(3) @_ZZ16add_rmsnormBlockILj512EfffEvPT1_S1_llllPKS0_llS3_llPKT2_mmfE12temp_storage, i32 0, i32 1, i32 %81
  store float %78, ptr addrspace(3) %82, align 4, !tbaa !19, !noalias !147
  br label %83

83:                                               ; preds = %80, %.loopexit2
  tail call void @llvm.bi.sl.barrier(), !noalias !147
  %84 = icmp eq i32 %38, 0
  br i1 %84, label %85, label %100

85:                                               ; preds = %83
  %86 = load float, ptr addrspace(3) getelementptr inbounds (%"struct.cub::BlockReduce<float, 512>::TempStorage", ptr addrspace(3) @_ZZ16add_rmsnormBlockILj512EfffEvPT1_S1_llllPKS0_llS3_llPKT2_mmfE12temp_storage, i32 0, i32 0, i32 0, i32 3), align 4, !tbaa !19, !noalias !147
  %87 = fadd contract float %78, %86
  %88 = load float, ptr addrspace(3) getelementptr inbounds (%"struct.cub::BlockReduce<float, 512>::TempStorage", ptr addrspace(3) @_ZZ16add_rmsnormBlockILj512EfffEvPT1_S1_llllPKS0_llS3_llPKT2_mmfE12temp_storage, i32 0, i32 0, i32 0, i32 4), align 4, !tbaa !19, !noalias !147
  %89 = fadd contract float %88, %87
  %90 = load float, ptr addrspace(3) getelementptr inbounds (%"struct.cub::BlockReduce<float, 512>::TempStorage", ptr addrspace(3) @_ZZ16add_rmsnormBlockILj512EfffEvPT1_S1_llllPKS0_llS3_llPKT2_mmfE12temp_storage, i32 0, i32 0, i32 0, i32 5), align 4, !tbaa !19, !noalias !147
  %91 = fadd contract float %90, %89
  %92 = load float, ptr addrspace(3) getelementptr inbounds (%"struct.cub::BlockReduce<float, 512>::TempStorage", ptr addrspace(3) @_ZZ16add_rmsnormBlockILj512EfffEvPT1_S1_llllPKS0_llS3_llPKT2_mmfE12temp_storage, i32 0, i32 0, i32 0, i32 6), align 4, !tbaa !19, !noalias !147
  %93 = fadd contract float %92, %91
  %94 = load float, ptr addrspace(3) getelementptr inbounds (%"struct.cub::BlockReduce<float, 512>::TempStorage", ptr addrspace(3) @_ZZ16add_rmsnormBlockILj512EfffEvPT1_S1_llllPKS0_llS3_llPKT2_mmfE12temp_storage, i32 0, i32 0, i32 0, i32 7), align 4, !tbaa !19, !noalias !147
  %95 = fadd contract float %94, %93
  %96 = load float, ptr addrspace(3) getelementptr inbounds (%"struct.cub::BlockReduce<float, 512>::TempStorage", ptr addrspace(3) @_ZZ16add_rmsnormBlockILj512EfffEvPT1_S1_llllPKS0_llS3_llPKT2_mmfE12temp_storage, i32 0, i32 0, i32 0, i32 8), align 4, !tbaa !19, !noalias !147
  %97 = fadd contract float %96, %95
  %98 = load float, ptr addrspace(3) getelementptr inbounds (%"struct.cub::BlockReduce<float, 512>::TempStorage", ptr addrspace(3) @_ZZ16add_rmsnormBlockILj512EfffEvPT1_S1_llllPKS0_llS3_llPKT2_mmfE12temp_storage, i32 0, i32 0, i32 0, i32 9), align 4, !tbaa !19, !noalias !147
  %99 = fadd contract float %98, %97
  br label %100

100:                                              ; preds = %85, %83
  %101 = phi float [ %99, %85 ], [ %78, %83 ]
  br i1 %84, label %114, label %150

.preheader:                                       ; preds = %16, %.preheader
  %102 = phi float [ %111, %.preheader ], [ 0.000000e+00, %16 ]
  %103 = phi i64 [ %112, %.preheader ], [ %39, %16 ]
  %104 = getelementptr inbounds float, ptr addrspace(1) %29, i64 %103
  %105 = load float, ptr addrspace(1) %104, align 4, !tbaa !19, !alias.scope !141, !noalias !148, !iluvatar.noclobber !18
  %106 = getelementptr inbounds float, ptr addrspace(1) %33, i64 %103
  %107 = load float, ptr addrspace(1) %106, align 4, !tbaa !19, !alias.scope !143, !noalias !149, !iluvatar.noclobber !18
  %108 = fadd contract float %105, %107
  %109 = getelementptr inbounds float, ptr addrspace(1) %37, i64 %103
  store float %108, ptr addrspace(1) %109, align 4, !tbaa !19, !alias.scope !139, !noalias !150
  %110 = fmul contract float %108, %108
  %111 = fadd contract float %102, %110
  %112 = add i64 %103, 512
  %113 = icmp ult i64 %112, %14
  br i1 %113, label %.preheader, label %.loopexit2, !llvm.loop !151

114:                                              ; preds = %100
  %115 = uitofp i64 %14 to float
  %116 = fdiv contract float %101, %115
  %117 = fadd contract float %116, %15
  %118 = tail call float @llvm.fabs.f32(float %117)
  %119 = fcmp contract olt float %118, 0x3810000000000000
  %120 = fmul contract float %117, 0x4170000000000000
  %121 = select i1 %119, float %120, float %117
  %122 = bitcast float %121 to i32
  %123 = add i32 %122, -8388608
  %124 = icmp ult i32 %123, 2130706432
  br i1 %124, label %125, label %146

125:                                              ; preds = %114
  %126 = and i32 %122, 16777215
  %127 = or disjoint i32 %126, 1056964608
  %128 = bitcast i32 %127 to float
  %129 = sub nsw i32 %127, %122
  %130 = add nsw i32 %129, 201326592
  %131 = select i1 %119, i32 %130, i32 %129
  %132 = tail call contract noundef float @llvm.nvvm.rsqrt.approx.ftz.f(float noundef %128) #7
  %133 = fmul contract float %132, %132
  %134 = fneg contract float %133
  %135 = tail call float @llvm.fma.f32(float %132, float %132, float %134)
  %136 = fneg contract float %128
  %137 = tail call float @llvm.fma.f32(float %133, float %136, float 1.000000e+00)
  %138 = tail call float @llvm.fma.f32(float %135, float %136, float %137)
  %139 = tail call float @llvm.fma.f32(float %138, float 3.750000e-01, float 5.000000e-01)
  %140 = fmul contract float %132, %138
  %141 = tail call float @llvm.fma.f32(float %139, float %140, float %132)
  %142 = ashr i32 %131, 1
  %143 = bitcast float %141 to i32
  %144 = add i32 %142, %143
  %145 = bitcast i32 %144 to float
  br label %148

146:                                              ; preds = %114
  %147 = tail call contract noundef float @llvm.nvvm.rsqrt.approx.ftz.f(float noundef %121) #7
  br label %148

148:                                              ; preds = %146, %125
  %149 = phi float [ %145, %125 ], [ %147, %146 ]
  store float %149, ptr addrspace(3) @_ZZ16add_rmsnormBlockILj512EfffEvPT1_S1_llllPKS0_llS3_llPKT2_mmfE3rms, align 4, !tbaa !19, !noalias !147
  br label %150

150:                                              ; preds = %148, %100
  tail call void @llvm.bi.sl.barrier(), !noalias !147
  br i1 %40, label %151, label %.loopexit

151:                                              ; preds = %150
  %152 = load float, ptr addrspace(3) @_ZZ16add_rmsnormBlockILj512EfffEvPT1_S1_llllPKS0_llS3_llPKT2_mmfE3rms, align 4, !tbaa !19, !noalias !147
  br label %153

153:                                              ; preds = %153, %151
  %154 = phi i64 [ %39, %151 ], [ %162, %153 ]
  %155 = getelementptr inbounds float, ptr addrspace(1) %37, i64 %154
  %156 = load float, ptr addrspace(1) %155, align 4, !tbaa !19, !alias.scope !139, !noalias !150
  %157 = getelementptr inbounds float, ptr addrspace(1) %12, i64 %154
  %158 = load float, ptr addrspace(1) %157, align 4, !tbaa !19, !alias.scope !145, !noalias !152, !iluvatar.noclobber !18
  %159 = fmul contract float %156, %158
  %160 = fmul contract float %152, %159
  %161 = getelementptr inbounds float, ptr addrspace(1) %25, i64 %154
  store float %160, ptr addrspace(1) %161, align 4, !tbaa !19, !alias.scope !136, !noalias !153
  %162 = add i64 %154, 512
  %163 = icmp ult i64 %162, %14
  br i1 %163, label %153, label %.loopexit, !llvm.loop !154

.loopexit:                                        ; preds = %153, %150
  ret void
}

; Function Attrs: convergent mustprogress norecurse nounwind
define dso_local iluvatar_kernel void @_Z17add_rmsnormKernelILj1024Ef6__halfS0_EvPT1_S2_llllPKS1_llS4_llPKT2_mmf(ptr addrspace(1) noalias nocapture noundef writeonly %0, ptr addrspace(1) noalias nocapture noundef %1, i64 noundef %2, i64 noundef %3, i64 noundef %4, i64 noundef %5, ptr addrspace(1) noalias nocapture noundef readonly %6, i64 noundef %7, i64 noundef %8, ptr addrspace(1) noalias nocapture noundef readonly %9, i64 noundef %10, i64 noundef %11, ptr addrspace(1) noalias nocapture noundef readonly %12, i64 noundef %13, i64 noundef %14, float noundef %15) local_unnamed_addr #0 comdat {
  tail call void @llvm.experimental.noalias.scope.decl(metadata !155)
  tail call void @llvm.experimental.noalias.scope.decl(metadata !158)
  tail call void @llvm.experimental.noalias.scope.decl(metadata !160)
  tail call void @llvm.experimental.noalias.scope.decl(metadata !162)
  tail call void @llvm.experimental.noalias.scope.decl(metadata !164)
  %17 = tail call noundef i32 @llvm.nvvm.read.ptx.sreg.ctaid.x(), !range !15
  %18 = zext nneg i32 %17 to i64
  %19 = udiv i64 %18, %13
  %20 = mul i64 %19, %13
  %21 = sub i64 %18, %20
  %22 = mul i64 %19, %2
  %23 = getelementptr inbounds %struct.__half, ptr addrspace(1) %0, i64 %22
  %24 = mul i64 %21, %3
  %25 = getelementptr inbounds %struct.__half, ptr addrspace(1) %23, i64 %24
  %26 = mul i64 %19, %7
  %27 = getelementptr inbounds %struct.__half, ptr addrspace(1) %6, i64 %26
  %28 = mul i64 %21, %8
  %29 = getelementptr inbounds %struct.__half, ptr addrspace(1) %27, i64 %28
  %30 = mul i64 %19, %10
  %31 = getelementptr inbounds %struct.__half, ptr addrspace(1) %9, i64 %30
  %32 = mul i64 %21, %11
  %33 = getelementptr inbounds %struct.__half, ptr addrspace(1) %31, i64 %32
  %34 = mul i64 %19, %4
  %35 = getelementptr inbounds %struct.__half, ptr addrspace(1) %1, i64 %34
  %36 = mul i64 %21, %5
  %37 = getelementptr inbounds %struct.__half, ptr addrspace(1) %35, i64 %36
  %38 = tail call noundef i32 @llvm.nvvm.read.ptx.sreg.tid.x(), !range !16
  %39 = zext nneg i32 %38 to i64
  %40 = icmp ult i64 %39, %14
  br i1 %40, label %.preheader, label %.loopexit3

.loopexit3:                                       ; preds = %.preheader, %16
  %41 = phi float [ 0.000000e+00, %16 ], [ %130, %.preheader ]
  %42 = tail call noundef i32 @llvm.bi.lane.id(), !range !17, !noundef !18
  %43 = icmp ne i32 %42, 63
  %44 = zext i1 %43 to i32
  %45 = add nuw nsw i32 %42, %44
  %46 = tail call contract float @llvm.bi.slb.shfl.idx.b32.f32(float %41, i32 %45)
  %47 = select i1 %43, float %41, float -0.000000e+00
  %48 = fadd contract float %46, %47
  %49 = add nuw nsw i32 %42, 2
  %50 = icmp ugt i32 %42, 61
  %51 = select i1 %50, i32 %42, i32 %49
  %52 = tail call contract float @llvm.bi.slb.shfl.idx.b32.f32(float %48, i32 %51)
  %53 = select i1 %50, float -0.000000e+00, float %48
  %54 = fadd contract float %52, %53
  %55 = add nuw nsw i32 %42, 4
  %56 = icmp ugt i32 %42, 59
  %57 = select i1 %56, i32 %42, i32 %55
  %58 = tail call contract float @llvm.bi.slb.shfl.idx.b32.f32(float %54, i32 %57)
  %59 = select i1 %56, float -0.000000e+00, float %54
  %60 = fadd contract float %58, %59
  %61 = add nuw nsw i32 %42, 8
  %62 = icmp ugt i32 %42, 55
  %63 = select i1 %62, i32 %42, i32 %61
  %64 = tail call contract float @llvm.bi.slb.shfl.idx.b32.f32(float %60, i32 %63)
  %65 = select i1 %62, float -0.000000e+00, float %60
  %66 = fadd contract float %64, %65
  %67 = add nuw nsw i32 %42, 16
  %68 = icmp ugt i32 %42, 47
  %69 = select i1 %68, i32 %42, i32 %67
  %70 = tail call contract float @llvm.bi.slb.shfl.idx.b32.f32(float %66, i32 %69)
  %71 = select i1 %68, float -0.000000e+00, float %66
  %72 = fadd contract float %70, %71
  %73 = add nuw nsw i32 %42, 32
  %74 = icmp ugt i32 %42, 31
  %75 = select i1 %74, i32 %42, i32 %73
  %76 = tail call contract float @llvm.bi.slb.shfl.idx.b32.f32(float %72, i32 %75)
  %77 = select i1 %74, float -0.000000e+00, float %72
  %78 = fadd contract float %76, %77
  %79 = icmp eq i32 %42, 0
  br i1 %79, label %80, label %83

80:                                               ; preds = %.loopexit3
  %81 = lshr i32 %38, 6
  %82 = getelementptr inbounds %"struct.cub::BlockReduceWarpReductions<float, 1024, 1, 1, 300>::_TempStorage", ptr addrspace(3) @_ZZ16add_rmsnormBlockILj1024Ef6__halfS0_EvPT1_S2_llllPKS1_llS4_llPKT2_mmfE12temp_storage, i32 0, i32 1, i32 %81
  store float %78, ptr addrspace(3) %82, align 4, !tbaa !19, !noalias !166
  br label %83

83:                                               ; preds = %80, %.loopexit3
  tail call void @llvm.bi.sl.barrier(), !noalias !166
  %84 = icmp eq i32 %38, 0
  br i1 %84, label %85, label %116

85:                                               ; preds = %83
  %86 = load float, ptr addrspace(3) getelementptr inbounds (%"struct.cub::BlockReduce<float, 1024>::TempStorage", ptr addrspace(3) @_ZZ16add_rmsnormBlockILj1024Ef6__halfS0_EvPT1_S2_llllPKS1_llS4_llPKT2_mmfE12temp_storage, i32 0, i32 0, i32 0, i32 5), align 4, !tbaa !19, !noalias !166
  %87 = fadd contract float %78, %86
  %88 = load float, ptr addrspace(3) getelementptr inbounds (%"struct.cub::BlockReduce<float, 1024>::TempStorage", ptr addrspace(3) @_ZZ16add_rmsnormBlockILj1024Ef6__halfS0_EvPT1_S2_llllPKS1_llS4_llPKT2_mmfE12temp_storage, i32 0, i32 0, i32 0, i32 6), align 4, !tbaa !19, !noalias !166
  %89 = fadd contract float %88, %87
  %90 = load float, ptr addrspace(3) getelementptr inbounds (%"struct.cub::BlockReduce<float, 1024>::TempStorage", ptr addrspace(3) @_ZZ16add_rmsnormBlockILj1024Ef6__halfS0_EvPT1_S2_llllPKS1_llS4_llPKT2_mmfE12temp_storage, i32 0, i32 0, i32 0, i32 7), align 4, !tbaa !19, !noalias !166
  %91 = fadd contract float %90, %89
  %92 = load float, ptr addrspace(3) getelementptr inbounds (%"struct.cub::BlockReduce<float, 1024>::TempStorage", ptr addrspace(3) @_ZZ16add_rmsnormBlockILj1024Ef6__halfS0_EvPT1_S2_llllPKS1_llS4_llPKT2_mmfE12temp_storage, i32 0, i32 0, i32 0, i32 8), align 4, !tbaa !19, !noalias !166
  %93 = fadd contract float %92, %91
  %94 = load float, ptr addrspace(3) getelementptr inbounds (%"struct.cub::BlockReduce<float, 1024>::TempStorage", ptr addrspace(3) @_ZZ16add_rmsnormBlockILj1024Ef6__halfS0_EvPT1_S2_llllPKS1_llS4_llPKT2_mmfE12temp_storage, i32 0, i32 0, i32 0, i32 9), align 4, !tbaa !19, !noalias !166
  %95 = fadd contract float %94, %93
  %96 = load float, ptr addrspace(3) getelementptr inbounds (%"struct.cub::BlockReduce<float, 1024>::TempStorage", ptr addrspace(3) @_ZZ16add_rmsnormBlockILj1024Ef6__halfS0_EvPT1_S2_llllPKS1_llS4_llPKT2_mmfE12temp_storage, i32 0, i32 0, i32 0, i32 10), align 4, !tbaa !19, !noalias !166
  %97 = fadd contract float %96, %95
  %98 = load float, ptr addrspace(3) getelementptr inbounds (%"struct.cub::BlockReduce<float, 1024>::TempStorage", ptr addrspace(3) @_ZZ16add_rmsnormBlockILj1024Ef6__halfS0_EvPT1_S2_llllPKS1_llS4_llPKT2_mmfE12temp_storage, i32 0, i32 0, i32 0, i32 11), align 4, !tbaa !19, !noalias !166
  %99 = fadd contract float %98, %97
  %100 = load float, ptr addrspace(3) getelementptr inbounds (%"struct.cub::BlockReduce<float, 1024>::TempStorage", ptr addrspace(3) @_ZZ16add_rmsnormBlockILj1024Ef6__halfS0_EvPT1_S2_llllPKS1_llS4_llPKT2_mmfE12temp_storage, i32 0, i32 0, i32 0, i32 12), align 4, !tbaa !19, !noalias !166
  %101 = fadd contract float %100, %99
  %102 = load float, ptr addrspace(3) getelementptr inbounds (%"struct.cub::BlockReduce<float, 1024>::TempStorage", ptr addrspace(3) @_ZZ16add_rmsnormBlockILj1024Ef6__halfS0_EvPT1_S2_llllPKS1_llS4_llPKT2_mmfE12temp_storage, i32 0, i32 0, i32 0, i32 13), align 4, !tbaa !19, !noalias !166
  %103 = fadd contract float %102, %101
  %104 = load float, ptr addrspace(3) getelementptr inbounds (%"struct.cub::BlockReduce<float, 1024>::TempStorage", ptr addrspace(3) @_ZZ16add_rmsnormBlockILj1024Ef6__halfS0_EvPT1_S2_llllPKS1_llS4_llPKT2_mmfE12temp_storage, i32 0, i32 0, i32 0, i32 14), align 4, !tbaa !19, !noalias !166
  %105 = fadd contract float %104, %103
  %106 = load float, ptr addrspace(3) getelementptr inbounds (%"struct.cub::BlockReduce<float, 1024>::TempStorage", ptr addrspace(3) @_ZZ16add_rmsnormBlockILj1024Ef6__halfS0_EvPT1_S2_llllPKS1_llS4_llPKT2_mmfE12temp_storage, i32 0, i32 0, i32 0, i32 15), align 4, !tbaa !19, !noalias !166
  %107 = fadd contract float %106, %105
  %108 = load float, ptr addrspace(3) getelementptr inbounds (%"struct.cub::BlockReduce<float, 1024>::TempStorage", ptr addrspace(3) @_ZZ16add_rmsnormBlockILj1024Ef6__halfS0_EvPT1_S2_llllPKS1_llS4_llPKT2_mmfE12temp_storage, i32 0, i32 0, i32 0, i32 16), align 4, !tbaa !19, !noalias !166
  %109 = fadd contract float %108, %107
  %110 = load float, ptr addrspace(3) getelementptr inbounds (%"struct.cub::BlockReduce<float, 1024>::TempStorage", ptr addrspace(3) @_ZZ16add_rmsnormBlockILj1024Ef6__halfS0_EvPT1_S2_llllPKS1_llS4_llPKT2_mmfE12temp_storage, i32 0, i32 0, i32 0, i32 17), align 4, !tbaa !19, !noalias !166
  %111 = fadd contract float %110, %109
  %112 = load float, ptr addrspace(3) getelementptr inbounds (%"struct.cub::BlockReduce<float, 1024>::TempStorage", ptr addrspace(3) @_ZZ16add_rmsnormBlockILj1024Ef6__halfS0_EvPT1_S2_llllPKS1_llS4_llPKT2_mmfE12temp_storage, i32 0, i32 0, i32 0, i32 18), align 4, !tbaa !19, !noalias !166
  %113 = fadd contract float %112, %111
  %114 = load float, ptr addrspace(3) getelementptr inbounds (%"struct.cub::BlockReduce<float, 1024>::TempStorage", ptr addrspace(3) @_ZZ16add_rmsnormBlockILj1024Ef6__halfS0_EvPT1_S2_llllPKS1_llS4_llPKT2_mmfE12temp_storage, i32 0, i32 0, i32 0, i32 19), align 4, !tbaa !19, !noalias !166
  %115 = fadd contract float %114, %113
  br label %116

116:                                              ; preds = %85, %83
  %117 = phi float [ %115, %85 ], [ %78, %83 ]
  br i1 %84, label %133, label %169

.preheader:                                       ; preds = %16, %.preheader
  %118 = phi float [ %130, %.preheader ], [ 0.000000e+00, %16 ]
  %119 = phi i64 [ %131, %.preheader ], [ %39, %16 ]
  %120 = getelementptr inbounds %struct.__half, ptr addrspace(1) %29, i64 %119
  %121 = load half, ptr addrspace(1) %120, align 2, !tbaa.struct !24, !alias.scope !160, !noalias !167, !iluvatar.noclobber !18
  %122 = fpext half %121 to float
  %123 = getelementptr inbounds %struct.__half, ptr addrspace(1) %33, i64 %119
  %124 = load half, ptr addrspace(1) %123, align 2, !tbaa.struct !24, !alias.scope !162, !noalias !168, !iluvatar.noclobber !18
  %125 = fpext half %124 to float
  %126 = fadd contract float %122, %125
  %127 = fptrunc float %126 to half
  %128 = getelementptr inbounds %struct.__half, ptr addrspace(1) %37, i64 %119
  store half %127, ptr addrspace(1) %128, align 2, !tbaa !25, !alias.scope !158, !noalias !169
  %129 = fmul contract float %126, %126
  %130 = fadd contract float %118, %129
  %131 = add i64 %119, 1024
  %132 = icmp ult i64 %131, %14
  br i1 %132, label %.preheader, label %.loopexit3, !llvm.loop !170

133:                                              ; preds = %116
  %134 = uitofp i64 %14 to float
  %135 = fdiv contract float %117, %134
  %136 = fadd contract float %135, %15
  %137 = tail call float @llvm.fabs.f32(float %136)
  %138 = fcmp contract olt float %137, 0x3810000000000000
  %139 = fmul contract float %136, 0x4170000000000000
  %140 = select i1 %138, float %139, float %136
  %141 = bitcast float %140 to i32
  %142 = add i32 %141, -8388608
  %143 = icmp ult i32 %142, 2130706432
  br i1 %143, label %144, label %165

144:                                              ; preds = %133
  %145 = and i32 %141, 16777215
  %146 = or disjoint i32 %145, 1056964608
  %147 = bitcast i32 %146 to float
  %148 = sub nsw i32 %146, %141
  %149 = add nsw i32 %148, 201326592
  %150 = select i1 %138, i32 %149, i32 %148
  %151 = tail call contract noundef float @llvm.nvvm.rsqrt.approx.ftz.f(float noundef %147) #7
  %152 = fmul contract float %151, %151
  %153 = fneg contract float %152
  %154 = tail call float @llvm.fma.f32(float %151, float %151, float %153)
  %155 = fneg contract float %147
  %156 = tail call float @llvm.fma.f32(float %152, float %155, float 1.000000e+00)
  %157 = tail call float @llvm.fma.f32(float %154, float %155, float %156)
  %158 = tail call float @llvm.fma.f32(float %157, float 3.750000e-01, float 5.000000e-01)
  %159 = fmul contract float %151, %157
  %160 = tail call float @llvm.fma.f32(float %158, float %159, float %151)
  %161 = ashr i32 %150, 1
  %162 = bitcast float %160 to i32
  %163 = add i32 %161, %162
  %164 = bitcast i32 %163 to float
  br label %167

165:                                              ; preds = %133
  %166 = tail call contract noundef float @llvm.nvvm.rsqrt.approx.ftz.f(float noundef %140) #7
  br label %167

167:                                              ; preds = %165, %144
  %168 = phi float [ %164, %144 ], [ %166, %165 ]
  store float %168, ptr addrspace(3) @_ZZ16add_rmsnormBlockILj1024Ef6__halfS0_EvPT1_S2_llllPKS1_llS4_llPKT2_mmfE3rms, align 4, !tbaa !19, !noalias !166
  br label %169

169:                                              ; preds = %167, %116
  tail call void @llvm.bi.sl.barrier(), !noalias !166
  br i1 %40, label %170, label %.loopexit

170:                                              ; preds = %169
  %171 = load float, ptr addrspace(3) @_ZZ16add_rmsnormBlockILj1024Ef6__halfS0_EvPT1_S2_llllPKS1_llS4_llPKT2_mmfE3rms, align 4, !tbaa !19, !noalias !166
  %172 = xor i64 %39, -1
  %173 = add i64 %172, %14
  %174 = lshr i64 %173, 10
  %175 = add nuw nsw i64 %174, 1
  %176 = icmp ult i64 %173, 1024
  br i1 %176, label %.preheader4, label %177

177:                                              ; preds = %170
  %178 = and i64 %175, 36028797018963966
  %179 = shl i64 %178, 10
  %180 = insertelement <2 x float> poison, float %171, i64 0
  %181 = shufflevector <2 x float> %180, <2 x float> poison, <2 x i32> zeroinitializer
  br label %182

182:                                              ; preds = %182, %177
  %183 = phi i64 [ 0, %177 ], [ %208, %182 ]
  %184 = shl i64 %183, 10
  %185 = add i64 %184, %39
  %186 = add i64 %185, 1024
  %187 = getelementptr inbounds %struct.__half, ptr addrspace(1) %37, i64 %185
  %188 = getelementptr inbounds %struct.__half, ptr addrspace(1) %37, i64 %186
  %189 = load half, ptr addrspace(1) %187, align 2, !tbaa.struct !24, !alias.scope !158, !noalias !169
  %190 = load half, ptr addrspace(1) %188, align 2, !tbaa.struct !24, !alias.scope !158, !noalias !169
  %191 = insertelement <2 x half> poison, half %189, i64 0
  %192 = insertelement <2 x half> %191, half %190, i64 1
  %193 = fpext <2 x half> %192 to <2 x float>
  %194 = getelementptr inbounds %struct.__half, ptr addrspace(1) %12, i64 %185
  %195 = getelementptr inbounds %struct.__half, ptr addrspace(1) %12, i64 %186
  %196 = load half, ptr addrspace(1) %194, align 2, !tbaa.struct !24, !alias.scope !164, !noalias !171, !iluvatar.noclobber !18
  %197 = load half, ptr addrspace(1) %195, align 2, !tbaa.struct !24, !alias.scope !164, !noalias !171, !iluvatar.noclobber !18
  %198 = insertelement <2 x half> poison, half %196, i64 0
  %199 = insertelement <2 x half> %198, half %197, i64 1
  %200 = fpext <2 x half> %199 to <2 x float>
  %201 = fmul contract <2 x float> %193, %200
  %202 = fmul contract <2 x float> %181, %201
  %203 = fptrunc <2 x float> %202 to <2 x half>
  %204 = getelementptr inbounds %struct.__half, ptr addrspace(1) %25, i64 %185
  %205 = getelementptr inbounds %struct.__half, ptr addrspace(1) %25, i64 %186
  %206 = extractelement <2 x half> %203, i64 0
  store half %206, ptr addrspace(1) %204, align 2, !tbaa !25, !alias.scope !155, !noalias !172
  %207 = extractelement <2 x half> %203, i64 1
  store half %207, ptr addrspace(1) %205, align 2, !tbaa !25, !alias.scope !155, !noalias !172
  %208 = add nuw i64 %183, 2
  %209 = icmp eq i64 %208, %178
  br i1 %209, label %210, label %182, !llvm.loop !173

210:                                              ; preds = %182
  %211 = add i64 %179, %39
  %212 = icmp eq i64 %175, %178
  br i1 %212, label %.loopexit, label %.preheader4

.preheader4:                                      ; preds = %210, %170
  %.ph = phi i64 [ %211, %210 ], [ %39, %170 ]
  br label %213

213:                                              ; preds = %.preheader4, %213
  %214 = phi i64 [ %225, %213 ], [ %.ph, %.preheader4 ]
  %215 = getelementptr inbounds %struct.__half, ptr addrspace(1) %37, i64 %214
  %216 = load half, ptr addrspace(1) %215, align 2, !tbaa.struct !24, !alias.scope !158, !noalias !169
  %217 = fpext half %216 to float
  %218 = getelementptr inbounds %struct.__half, ptr addrspace(1) %12, i64 %214
  %219 = load half, ptr addrspace(1) %218, align 2, !tbaa.struct !24, !alias.scope !164, !noalias !171, !iluvatar.noclobber !18
  %220 = fpext half %219 to float
  %221 = fmul contract float %217, %220
  %222 = fmul contract float %171, %221
  %223 = fptrunc float %222 to half
  %224 = getelementptr inbounds %struct.__half, ptr addrspace(1) %25, i64 %214
  store half %223, ptr addrspace(1) %224, align 2, !tbaa !25, !alias.scope !155, !noalias !172
  %225 = add i64 %214, 1024
  %226 = icmp ult i64 %225, %14
  br i1 %226, label %213, label %.loopexit, !llvm.loop !174

.loopexit:                                        ; preds = %213, %210, %169
  ret void
}

; Function Attrs: convergent mustprogress norecurse nounwind
define dso_local iluvatar_kernel void @_Z17add_rmsnormKernelILj1024Ef6__half13__nv_bfloat16EvPT1_S3_llllPKS2_llS5_llPKT2_mmf(ptr addrspace(1) noalias nocapture noundef writeonly %0, ptr addrspace(1) noalias nocapture noundef %1, i64 noundef %2, i64 noundef %3, i64 noundef %4, i64 noundef %5, ptr addrspace(1) noalias nocapture noundef readonly %6, i64 noundef %7, i64 noundef %8, ptr addrspace(1) noalias nocapture noundef readonly %9, i64 noundef %10, i64 noundef %11, ptr addrspace(1) noalias nocapture noundef readonly %12, i64 noundef %13, i64 noundef %14, float noundef %15) local_unnamed_addr #0 comdat {
  tail call void @llvm.experimental.noalias.scope.decl(metadata !175)
  tail call void @llvm.experimental.noalias.scope.decl(metadata !178)
  tail call void @llvm.experimental.noalias.scope.decl(metadata !180)
  tail call void @llvm.experimental.noalias.scope.decl(metadata !182)
  tail call void @llvm.experimental.noalias.scope.decl(metadata !184)
  %17 = tail call noundef i32 @llvm.nvvm.read.ptx.sreg.ctaid.x(), !range !15
  %18 = zext nneg i32 %17 to i64
  %19 = udiv i64 %18, %13
  %20 = mul i64 %19, %13
  %21 = sub i64 %18, %20
  %22 = mul i64 %19, %2
  %23 = getelementptr inbounds %struct.__half, ptr addrspace(1) %0, i64 %22
  %24 = mul i64 %21, %3
  %25 = getelementptr inbounds %struct.__half, ptr addrspace(1) %23, i64 %24
  %26 = mul i64 %19, %7
  %27 = getelementptr inbounds %struct.__half, ptr addrspace(1) %6, i64 %26
  %28 = mul i64 %21, %8
  %29 = getelementptr inbounds %struct.__half, ptr addrspace(1) %27, i64 %28
  %30 = mul i64 %19, %10
  %31 = getelementptr inbounds %struct.__half, ptr addrspace(1) %9, i64 %30
  %32 = mul i64 %21, %11
  %33 = getelementptr inbounds %struct.__half, ptr addrspace(1) %31, i64 %32
  %34 = mul i64 %19, %4
  %35 = getelementptr inbounds %struct.__half, ptr addrspace(1) %1, i64 %34
  %36 = mul i64 %21, %5
  %37 = getelementptr inbounds %struct.__half, ptr addrspace(1) %35, i64 %36
  %38 = tail call noundef i32 @llvm.nvvm.read.ptx.sreg.tid.x(), !range !16
  %39 = zext nneg i32 %38 to i64
  %40 = icmp ult i64 %39, %14
  br i1 %40, label %.preheader, label %.loopexit3

.loopexit3:                                       ; preds = %.preheader, %16
  %41 = phi float [ 0.000000e+00, %16 ], [ %130, %.preheader ]
  %42 = tail call noundef i32 @llvm.bi.lane.id(), !range !17, !noundef !18
  %43 = icmp ne i32 %42, 63
  %44 = zext i1 %43 to i32
  %45 = add nuw nsw i32 %42, %44
  %46 = tail call contract float @llvm.bi.slb.shfl.idx.b32.f32(float %41, i32 %45)
  %47 = select i1 %43, float %41, float -0.000000e+00
  %48 = fadd contract float %46, %47
  %49 = add nuw nsw i32 %42, 2
  %50 = icmp ugt i32 %42, 61
  %51 = select i1 %50, i32 %42, i32 %49
  %52 = tail call contract float @llvm.bi.slb.shfl.idx.b32.f32(float %48, i32 %51)
  %53 = select i1 %50, float -0.000000e+00, float %48
  %54 = fadd contract float %52, %53
  %55 = add nuw nsw i32 %42, 4
  %56 = icmp ugt i32 %42, 59
  %57 = select i1 %56, i32 %42, i32 %55
  %58 = tail call contract float @llvm.bi.slb.shfl.idx.b32.f32(float %54, i32 %57)
  %59 = select i1 %56, float -0.000000e+00, float %54
  %60 = fadd contract float %58, %59
  %61 = add nuw nsw i32 %42, 8
  %62 = icmp ugt i32 %42, 55
  %63 = select i1 %62, i32 %42, i32 %61
  %64 = tail call contract float @llvm.bi.slb.shfl.idx.b32.f32(float %60, i32 %63)
  %65 = select i1 %62, float -0.000000e+00, float %60
  %66 = fadd contract float %64, %65
  %67 = add nuw nsw i32 %42, 16
  %68 = icmp ugt i32 %42, 47
  %69 = select i1 %68, i32 %42, i32 %67
  %70 = tail call contract float @llvm.bi.slb.shfl.idx.b32.f32(float %66, i32 %69)
  %71 = select i1 %68, float -0.000000e+00, float %66
  %72 = fadd contract float %70, %71
  %73 = add nuw nsw i32 %42, 32
  %74 = icmp ugt i32 %42, 31
  %75 = select i1 %74, i32 %42, i32 %73
  %76 = tail call contract float @llvm.bi.slb.shfl.idx.b32.f32(float %72, i32 %75)
  %77 = select i1 %74, float -0.000000e+00, float %72
  %78 = fadd contract float %76, %77
  %79 = icmp eq i32 %42, 0
  br i1 %79, label %80, label %83

80:                                               ; preds = %.loopexit3
  %81 = lshr i32 %38, 6
  %82 = getelementptr inbounds %"struct.cub::BlockReduceWarpReductions<float, 1024, 1, 1, 300>::_TempStorage", ptr addrspace(3) @_ZZ16add_rmsnormBlockILj1024Ef6__half13__nv_bfloat16EvPT1_S3_llllPKS2_llS5_llPKT2_mmfE12temp_storage, i32 0, i32 1, i32 %81
  store float %78, ptr addrspace(3) %82, align 4, !tbaa !19, !noalias !186
  br label %83

83:                                               ; preds = %80, %.loopexit3
  tail call void @llvm.bi.sl.barrier(), !noalias !186
  %84 = icmp eq i32 %38, 0
  br i1 %84, label %85, label %116

85:                                               ; preds = %83
  %86 = load float, ptr addrspace(3) getelementptr inbounds (%"struct.cub::BlockReduce<float, 1024>::TempStorage", ptr addrspace(3) @_ZZ16add_rmsnormBlockILj1024Ef6__half13__nv_bfloat16EvPT1_S3_llllPKS2_llS5_llPKT2_mmfE12temp_storage, i32 0, i32 0, i32 0, i32 5), align 4, !tbaa !19, !noalias !186
  %87 = fadd contract float %78, %86
  %88 = load float, ptr addrspace(3) getelementptr inbounds (%"struct.cub::BlockReduce<float, 1024>::TempStorage", ptr addrspace(3) @_ZZ16add_rmsnormBlockILj1024Ef6__half13__nv_bfloat16EvPT1_S3_llllPKS2_llS5_llPKT2_mmfE12temp_storage, i32 0, i32 0, i32 0, i32 6), align 4, !tbaa !19, !noalias !186
  %89 = fadd contract float %88, %87
  %90 = load float, ptr addrspace(3) getelementptr inbounds (%"struct.cub::BlockReduce<float, 1024>::TempStorage", ptr addrspace(3) @_ZZ16add_rmsnormBlockILj1024Ef6__half13__nv_bfloat16EvPT1_S3_llllPKS2_llS5_llPKT2_mmfE12temp_storage, i32 0, i32 0, i32 0, i32 7), align 4, !tbaa !19, !noalias !186
  %91 = fadd contract float %90, %89
  %92 = load float, ptr addrspace(3) getelementptr inbounds (%"struct.cub::BlockReduce<float, 1024>::TempStorage", ptr addrspace(3) @_ZZ16add_rmsnormBlockILj1024Ef6__half13__nv_bfloat16EvPT1_S3_llllPKS2_llS5_llPKT2_mmfE12temp_storage, i32 0, i32 0, i32 0, i32 8), align 4, !tbaa !19, !noalias !186
  %93 = fadd contract float %92, %91
  %94 = load float, ptr addrspace(3) getelementptr inbounds (%"struct.cub::BlockReduce<float, 1024>::TempStorage", ptr addrspace(3) @_ZZ16add_rmsnormBlockILj1024Ef6__half13__nv_bfloat16EvPT1_S3_llllPKS2_llS5_llPKT2_mmfE12temp_storage, i32 0, i32 0, i32 0, i32 9), align 4, !tbaa !19, !noalias !186
  %95 = fadd contract float %94, %93
  %96 = load float, ptr addrspace(3) getelementptr inbounds (%"struct.cub::BlockReduce<float, 1024>::TempStorage", ptr addrspace(3) @_ZZ16add_rmsnormBlockILj1024Ef6__half13__nv_bfloat16EvPT1_S3_llllPKS2_llS5_llPKT2_mmfE12temp_storage, i32 0, i32 0, i32 0, i32 10), align 4, !tbaa !19, !noalias !186
  %97 = fadd contract float %96, %95
  %98 = load float, ptr addrspace(3) getelementptr inbounds (%"struct.cub::BlockReduce<float, 1024>::TempStorage", ptr addrspace(3) @_ZZ16add_rmsnormBlockILj1024Ef6__half13__nv_bfloat16EvPT1_S3_llllPKS2_llS5_llPKT2_mmfE12temp_storage, i32 0, i32 0, i32 0, i32 11), align 4, !tbaa !19, !noalias !186
  %99 = fadd contract float %98, %97
  %100 = load float, ptr addrspace(3) getelementptr inbounds (%"struct.cub::BlockReduce<float, 1024>::TempStorage", ptr addrspace(3) @_ZZ16add_rmsnormBlockILj1024Ef6__half13__nv_bfloat16EvPT1_S3_llllPKS2_llS5_llPKT2_mmfE12temp_storage, i32 0, i32 0, i32 0, i32 12), align 4, !tbaa !19, !noalias !186
  %101 = fadd contract float %100, %99
  %102 = load float, ptr addrspace(3) getelementptr inbounds (%"struct.cub::BlockReduce<float, 1024>::TempStorage", ptr addrspace(3) @_ZZ16add_rmsnormBlockILj1024Ef6__half13__nv_bfloat16EvPT1_S3_llllPKS2_llS5_llPKT2_mmfE12temp_storage, i32 0, i32 0, i32 0, i32 13), align 4, !tbaa !19, !noalias !186
  %103 = fadd contract float %102, %101
  %104 = load float, ptr addrspace(3) getelementptr inbounds (%"struct.cub::BlockReduce<float, 1024>::TempStorage", ptr addrspace(3) @_ZZ16add_rmsnormBlockILj1024Ef6__half13__nv_bfloat16EvPT1_S3_llllPKS2_llS5_llPKT2_mmfE12temp_storage, i32 0, i32 0, i32 0, i32 14), align 4, !tbaa !19, !noalias !186
  %105 = fadd contract float %104, %103
  %106 = load float, ptr addrspace(3) getelementptr inbounds (%"struct.cub::BlockReduce<float, 1024>::TempStorage", ptr addrspace(3) @_ZZ16add_rmsnormBlockILj1024Ef6__half13__nv_bfloat16EvPT1_S3_llllPKS2_llS5_llPKT2_mmfE12temp_storage, i32 0, i32 0, i32 0, i32 15), align 4, !tbaa !19, !noalias !186
  %107 = fadd contract float %106, %105
  %108 = load float, ptr addrspace(3) getelementptr inbounds (%"struct.cub::BlockReduce<float, 1024>::TempStorage", ptr addrspace(3) @_ZZ16add_rmsnormBlockILj1024Ef6__half13__nv_bfloat16EvPT1_S3_llllPKS2_llS5_llPKT2_mmfE12temp_storage, i32 0, i32 0, i32 0, i32 16), align 4, !tbaa !19, !noalias !186
  %109 = fadd contract float %108, %107
  %110 = load float, ptr addrspace(3) getelementptr inbounds (%"struct.cub::BlockReduce<float, 1024>::TempStorage", ptr addrspace(3) @_ZZ16add_rmsnormBlockILj1024Ef6__half13__nv_bfloat16EvPT1_S3_llllPKS2_llS5_llPKT2_mmfE12temp_storage, i32 0, i32 0, i32 0, i32 17), align 4, !tbaa !19, !noalias !186
  %111 = fadd contract float %110, %109
  %112 = load float, ptr addrspace(3) getelementptr inbounds (%"struct.cub::BlockReduce<float, 1024>::TempStorage", ptr addrspace(3) @_ZZ16add_rmsnormBlockILj1024Ef6__half13__nv_bfloat16EvPT1_S3_llllPKS2_llS5_llPKT2_mmfE12temp_storage, i32 0, i32 0, i32 0, i32 18), align 4, !tbaa !19, !noalias !186
  %113 = fadd contract float %112, %111
  %114 = load float, ptr addrspace(3) getelementptr inbounds (%"struct.cub::BlockReduce<float, 1024>::TempStorage", ptr addrspace(3) @_ZZ16add_rmsnormBlockILj1024Ef6__half13__nv_bfloat16EvPT1_S3_llllPKS2_llS5_llPKT2_mmfE12temp_storage, i32 0, i32 0, i32 0, i32 19), align 4, !tbaa !19, !noalias !186
  %115 = fadd contract float %114, %113
  br label %116

116:                                              ; preds = %85, %83
  %117 = phi float [ %115, %85 ], [ %78, %83 ]
  br i1 %84, label %133, label %169

.preheader:                                       ; preds = %16, %.preheader
  %118 = phi float [ %130, %.preheader ], [ 0.000000e+00, %16 ]
  %119 = phi i64 [ %131, %.preheader ], [ %39, %16 ]
  %120 = getelementptr inbounds %struct.__half, ptr addrspace(1) %29, i64 %119
  %121 = load half, ptr addrspace(1) %120, align 2, !tbaa.struct !24, !alias.scope !180, !noalias !187, !iluvatar.noclobber !18
  %122 = fpext half %121 to float
  %123 = getelementptr inbounds %struct.__half, ptr addrspace(1) %33, i64 %119
  %124 = load half, ptr addrspace(1) %123, align 2, !tbaa.struct !24, !alias.scope !182, !noalias !188, !iluvatar.noclobber !18
  %125 = fpext half %124 to float
  %126 = fadd contract float %122, %125
  %127 = fptrunc float %126 to half
  %128 = getelementptr inbounds %struct.__half, ptr addrspace(1) %37, i64 %119
  store half %127, ptr addrspace(1) %128, align 2, !tbaa !25, !alias.scope !178, !noalias !189
  %129 = fmul contract float %126, %126
  %130 = fadd contract float %118, %129
  %131 = add i64 %119, 1024
  %132 = icmp ult i64 %131, %14
  br i1 %132, label %.preheader, label %.loopexit3, !llvm.loop !190

133:                                              ; preds = %116
  %134 = uitofp i64 %14 to float
  %135 = fdiv contract float %117, %134
  %136 = fadd contract float %135, %15
  %137 = tail call float @llvm.fabs.f32(float %136)
  %138 = fcmp contract olt float %137, 0x3810000000000000
  %139 = fmul contract float %136, 0x4170000000000000
  %140 = select i1 %138, float %139, float %136
  %141 = bitcast float %140 to i32
  %142 = add i32 %141, -8388608
  %143 = icmp ult i32 %142, 2130706432
  br i1 %143, label %144, label %165

144:                                              ; preds = %133
  %145 = and i32 %141, 16777215
  %146 = or disjoint i32 %145, 1056964608
  %147 = bitcast i32 %146 to float
  %148 = sub nsw i32 %146, %141
  %149 = add nsw i32 %148, 201326592
  %150 = select i1 %138, i32 %149, i32 %148
  %151 = tail call contract noundef float @llvm.nvvm.rsqrt.approx.ftz.f(float noundef %147) #7
  %152 = fmul contract float %151, %151
  %153 = fneg contract float %152
  %154 = tail call float @llvm.fma.f32(float %151, float %151, float %153)
  %155 = fneg contract float %147
  %156 = tail call float @llvm.fma.f32(float %152, float %155, float 1.000000e+00)
  %157 = tail call float @llvm.fma.f32(float %154, float %155, float %156)
  %158 = tail call float @llvm.fma.f32(float %157, float 3.750000e-01, float 5.000000e-01)
  %159 = fmul contract float %151, %157
  %160 = tail call float @llvm.fma.f32(float %158, float %159, float %151)
  %161 = ashr i32 %150, 1
  %162 = bitcast float %160 to i32
  %163 = add i32 %161, %162
  %164 = bitcast i32 %163 to float
  br label %167

165:                                              ; preds = %133
  %166 = tail call contract noundef float @llvm.nvvm.rsqrt.approx.ftz.f(float noundef %140) #7
  br label %167

167:                                              ; preds = %165, %144
  %168 = phi float [ %164, %144 ], [ %166, %165 ]
  store float %168, ptr addrspace(3) @_ZZ16add_rmsnormBlockILj1024Ef6__half13__nv_bfloat16EvPT1_S3_llllPKS2_llS5_llPKT2_mmfE3rms, align 4, !tbaa !19, !noalias !186
  br label %169

169:                                              ; preds = %167, %116
  tail call void @llvm.bi.sl.barrier(), !noalias !186
  br i1 %40, label %170, label %.loopexit

170:                                              ; preds = %169
  %171 = load float, ptr addrspace(3) @_ZZ16add_rmsnormBlockILj1024Ef6__half13__nv_bfloat16EvPT1_S3_llllPKS2_llS5_llPKT2_mmfE3rms, align 4, !tbaa !19, !noalias !186
  %172 = xor i64 %39, -1
  %173 = add i64 %172, %14
  %174 = lshr i64 %173, 10
  %175 = add nuw nsw i64 %174, 1
  %176 = icmp ult i64 %173, 1024
  br i1 %176, label %.preheader4, label %177

177:                                              ; preds = %170
  %178 = and i64 %175, 36028797018963966
  %179 = shl i64 %178, 10
  %180 = insertelement <2 x float> poison, float %171, i64 0
  %181 = shufflevector <2 x float> %180, <2 x float> poison, <2 x i32> zeroinitializer
  br label %182

182:                                              ; preds = %182, %177
  %183 = phi i64 [ 0, %177 ], [ %208, %182 ]
  %184 = shl i64 %183, 10
  %185 = add i64 %184, %39
  %186 = add i64 %185, 1024
  %187 = getelementptr inbounds %struct.__half, ptr addrspace(1) %37, i64 %185
  %188 = getelementptr inbounds %struct.__half, ptr addrspace(1) %37, i64 %186
  %189 = load half, ptr addrspace(1) %187, align 2, !tbaa.struct !24, !alias.scope !178, !noalias !189
  %190 = load half, ptr addrspace(1) %188, align 2, !tbaa.struct !24, !alias.scope !178, !noalias !189
  %191 = insertelement <2 x half> poison, half %189, i64 0
  %192 = insertelement <2 x half> %191, half %190, i64 1
  %193 = fpext <2 x half> %192 to <2 x float>
  %194 = getelementptr inbounds %struct.__nv_bfloat16, ptr addrspace(1) %12, i64 %185
  %195 = getelementptr inbounds %struct.__nv_bfloat16, ptr addrspace(1) %12, i64 %186
  %196 = load bfloat, ptr addrspace(1) %194, align 2, !tbaa.struct !24, !alias.scope !184, !noalias !191, !iluvatar.noclobber !18
  %197 = load bfloat, ptr addrspace(1) %195, align 2, !tbaa.struct !24, !alias.scope !184, !noalias !191, !iluvatar.noclobber !18
  %198 = insertelement <2 x bfloat> poison, bfloat %196, i64 0
  %199 = insertelement <2 x bfloat> %198, bfloat %197, i64 1
  %200 = fpext <2 x bfloat> %199 to <2 x float>
  %201 = fmul contract <2 x float> %193, %200
  %202 = fmul contract <2 x float> %181, %201
  %203 = fptrunc <2 x float> %202 to <2 x half>
  %204 = getelementptr inbounds %struct.__half, ptr addrspace(1) %25, i64 %185
  %205 = getelementptr inbounds %struct.__half, ptr addrspace(1) %25, i64 %186
  %206 = extractelement <2 x half> %203, i64 0
  store half %206, ptr addrspace(1) %204, align 2, !tbaa !25, !alias.scope !175, !noalias !192
  %207 = extractelement <2 x half> %203, i64 1
  store half %207, ptr addrspace(1) %205, align 2, !tbaa !25, !alias.scope !175, !noalias !192
  %208 = add nuw i64 %183, 2
  %209 = icmp eq i64 %208, %178
  br i1 %209, label %210, label %182, !llvm.loop !193

210:                                              ; preds = %182
  %211 = add i64 %179, %39
  %212 = icmp eq i64 %175, %178
  br i1 %212, label %.loopexit, label %.preheader4

.preheader4:                                      ; preds = %210, %170
  %.ph = phi i64 [ %211, %210 ], [ %39, %170 ]
  br label %213

213:                                              ; preds = %.preheader4, %213
  %214 = phi i64 [ %225, %213 ], [ %.ph, %.preheader4 ]
  %215 = getelementptr inbounds %struct.__half, ptr addrspace(1) %37, i64 %214
  %216 = load half, ptr addrspace(1) %215, align 2, !tbaa.struct !24, !alias.scope !178, !noalias !189
  %217 = fpext half %216 to float
  %218 = getelementptr inbounds %struct.__nv_bfloat16, ptr addrspace(1) %12, i64 %214
  %219 = load bfloat, ptr addrspace(1) %218, align 2, !tbaa.struct !24, !alias.scope !184, !noalias !191, !iluvatar.noclobber !18
  %220 = fpext bfloat %219 to float
  %221 = fmul contract float %217, %220
  %222 = fmul contract float %171, %221
  %223 = fptrunc float %222 to half
  %224 = getelementptr inbounds %struct.__half, ptr addrspace(1) %25, i64 %214
  store half %223, ptr addrspace(1) %224, align 2, !tbaa !25, !alias.scope !175, !noalias !192
  %225 = add i64 %214, 1024
  %226 = icmp ult i64 %225, %14
  br i1 %226, label %213, label %.loopexit, !llvm.loop !194

.loopexit:                                        ; preds = %213, %210, %169
  ret void
}

; Function Attrs: convergent mustprogress norecurse nounwind
define dso_local iluvatar_kernel void @_Z17add_rmsnormKernelILj1024Ef6__halffEvPT1_S2_llllPKS1_llS4_llPKT2_mmf(ptr addrspace(1) noalias nocapture noundef writeonly %0, ptr addrspace(1) noalias nocapture noundef %1, i64 noundef %2, i64 noundef %3, i64 noundef %4, i64 noundef %5, ptr addrspace(1) noalias nocapture noundef readonly %6, i64 noundef %7, i64 noundef %8, ptr addrspace(1) noalias nocapture noundef readonly %9, i64 noundef %10, i64 noundef %11, ptr addrspace(1) noalias nocapture noundef readonly %12, i64 noundef %13, i64 noundef %14, float noundef %15) local_unnamed_addr #0 comdat {
  tail call void @llvm.experimental.noalias.scope.decl(metadata !195)
  tail call void @llvm.experimental.noalias.scope.decl(metadata !198)
  tail call void @llvm.experimental.noalias.scope.decl(metadata !200)
  tail call void @llvm.experimental.noalias.scope.decl(metadata !202)
  tail call void @llvm.experimental.noalias.scope.decl(metadata !204)
  %17 = tail call noundef i32 @llvm.nvvm.read.ptx.sreg.ctaid.x(), !range !15
  %18 = zext nneg i32 %17 to i64
  %19 = udiv i64 %18, %13
  %20 = mul i64 %19, %13
  %21 = sub i64 %18, %20
  %22 = mul i64 %19, %2
  %23 = getelementptr inbounds %struct.__half, ptr addrspace(1) %0, i64 %22
  %24 = mul i64 %21, %3
  %25 = getelementptr inbounds %struct.__half, ptr addrspace(1) %23, i64 %24
  %26 = mul i64 %19, %7
  %27 = getelementptr inbounds %struct.__half, ptr addrspace(1) %6, i64 %26
  %28 = mul i64 %21, %8
  %29 = getelementptr inbounds %struct.__half, ptr addrspace(1) %27, i64 %28
  %30 = mul i64 %19, %10
  %31 = getelementptr inbounds %struct.__half, ptr addrspace(1) %9, i64 %30
  %32 = mul i64 %21, %11
  %33 = getelementptr inbounds %struct.__half, ptr addrspace(1) %31, i64 %32
  %34 = mul i64 %19, %4
  %35 = getelementptr inbounds %struct.__half, ptr addrspace(1) %1, i64 %34
  %36 = mul i64 %21, %5
  %37 = getelementptr inbounds %struct.__half, ptr addrspace(1) %35, i64 %36
  %38 = tail call noundef i32 @llvm.nvvm.read.ptx.sreg.tid.x(), !range !16
  %39 = zext nneg i32 %38 to i64
  %40 = icmp ult i64 %39, %14
  br i1 %40, label %.preheader, label %.loopexit2

.loopexit2:                                       ; preds = %.preheader, %16
  %41 = phi float [ 0.000000e+00, %16 ], [ %130, %.preheader ]
  %42 = tail call noundef i32 @llvm.bi.lane.id(), !range !17, !noundef !18
  %43 = icmp ne i32 %42, 63
  %44 = zext i1 %43 to i32
  %45 = add nuw nsw i32 %42, %44
  %46 = tail call contract float @llvm.bi.slb.shfl.idx.b32.f32(float %41, i32 %45)
  %47 = select i1 %43, float %41, float -0.000000e+00
  %48 = fadd contract float %46, %47
  %49 = add nuw nsw i32 %42, 2
  %50 = icmp ugt i32 %42, 61
  %51 = select i1 %50, i32 %42, i32 %49
  %52 = tail call contract float @llvm.bi.slb.shfl.idx.b32.f32(float %48, i32 %51)
  %53 = select i1 %50, float -0.000000e+00, float %48
  %54 = fadd contract float %52, %53
  %55 = add nuw nsw i32 %42, 4
  %56 = icmp ugt i32 %42, 59
  %57 = select i1 %56, i32 %42, i32 %55
  %58 = tail call contract float @llvm.bi.slb.shfl.idx.b32.f32(float %54, i32 %57)
  %59 = select i1 %56, float -0.000000e+00, float %54
  %60 = fadd contract float %58, %59
  %61 = add nuw nsw i32 %42, 8
  %62 = icmp ugt i32 %42, 55
  %63 = select i1 %62, i32 %42, i32 %61
  %64 = tail call contract float @llvm.bi.slb.shfl.idx.b32.f32(float %60, i32 %63)
  %65 = select i1 %62, float -0.000000e+00, float %60
  %66 = fadd contract float %64, %65
  %67 = add nuw nsw i32 %42, 16
  %68 = icmp ugt i32 %42, 47
  %69 = select i1 %68, i32 %42, i32 %67
  %70 = tail call contract float @llvm.bi.slb.shfl.idx.b32.f32(float %66, i32 %69)
  %71 = select i1 %68, float -0.000000e+00, float %66
  %72 = fadd contract float %70, %71
  %73 = add nuw nsw i32 %42, 32
  %74 = icmp ugt i32 %42, 31
  %75 = select i1 %74, i32 %42, i32 %73
  %76 = tail call contract float @llvm.bi.slb.shfl.idx.b32.f32(float %72, i32 %75)
  %77 = select i1 %74, float -0.000000e+00, float %72
  %78 = fadd contract float %76, %77
  %79 = icmp eq i32 %42, 0
  br i1 %79, label %80, label %83

80:                                               ; preds = %.loopexit2
  %81 = lshr i32 %38, 6
  %82 = getelementptr inbounds %"struct.cub::BlockReduceWarpReductions<float, 1024, 1, 1, 300>::_TempStorage", ptr addrspace(3) @_ZZ16add_rmsnormBlockILj1024Ef6__halffEvPT1_S2_llllPKS1_llS4_llPKT2_mmfE12temp_storage, i32 0, i32 1, i32 %81
  store float %78, ptr addrspace(3) %82, align 4, !tbaa !19, !noalias !206
  br label %83

83:                                               ; preds = %80, %.loopexit2
  tail call void @llvm.bi.sl.barrier(), !noalias !206
  %84 = icmp eq i32 %38, 0
  br i1 %84, label %85, label %116

85:                                               ; preds = %83
  %86 = load float, ptr addrspace(3) getelementptr inbounds (%"struct.cub::BlockReduce<float, 1024>::TempStorage", ptr addrspace(3) @_ZZ16add_rmsnormBlockILj1024Ef6__halffEvPT1_S2_llllPKS1_llS4_llPKT2_mmfE12temp_storage, i32 0, i32 0, i32 0, i32 5), align 4, !tbaa !19, !noalias !206
  %87 = fadd contract float %78, %86
  %88 = load float, ptr addrspace(3) getelementptr inbounds (%"struct.cub::BlockReduce<float, 1024>::TempStorage", ptr addrspace(3) @_ZZ16add_rmsnormBlockILj1024Ef6__halffEvPT1_S2_llllPKS1_llS4_llPKT2_mmfE12temp_storage, i32 0, i32 0, i32 0, i32 6), align 4, !tbaa !19, !noalias !206
  %89 = fadd contract float %88, %87
  %90 = load float, ptr addrspace(3) getelementptr inbounds (%"struct.cub::BlockReduce<float, 1024>::TempStorage", ptr addrspace(3) @_ZZ16add_rmsnormBlockILj1024Ef6__halffEvPT1_S2_llllPKS1_llS4_llPKT2_mmfE12temp_storage, i32 0, i32 0, i32 0, i32 7), align 4, !tbaa !19, !noalias !206
  %91 = fadd contract float %90, %89
  %92 = load float, ptr addrspace(3) getelementptr inbounds (%"struct.cub::BlockReduce<float, 1024>::TempStorage", ptr addrspace(3) @_ZZ16add_rmsnormBlockILj1024Ef6__halffEvPT1_S2_llllPKS1_llS4_llPKT2_mmfE12temp_storage, i32 0, i32 0, i32 0, i32 8), align 4, !tbaa !19, !noalias !206
  %93 = fadd contract float %92, %91
  %94 = load float, ptr addrspace(3) getelementptr inbounds (%"struct.cub::BlockReduce<float, 1024>::TempStorage", ptr addrspace(3) @_ZZ16add_rmsnormBlockILj1024Ef6__halffEvPT1_S2_llllPKS1_llS4_llPKT2_mmfE12temp_storage, i32 0, i32 0, i32 0, i32 9), align 4, !tbaa !19, !noalias !206
  %95 = fadd contract float %94, %93
  %96 = load float, ptr addrspace(3) getelementptr inbounds (%"struct.cub::BlockReduce<float, 1024>::TempStorage", ptr addrspace(3) @_ZZ16add_rmsnormBlockILj1024Ef6__halffEvPT1_S2_llllPKS1_llS4_llPKT2_mmfE12temp_storage, i32 0, i32 0, i32 0, i32 10), align 4, !tbaa !19, !noalias !206
  %97 = fadd contract float %96, %95
  %98 = load float, ptr addrspace(3) getelementptr inbounds (%"struct.cub::BlockReduce<float, 1024>::TempStorage", ptr addrspace(3) @_ZZ16add_rmsnormBlockILj1024Ef6__halffEvPT1_S2_llllPKS1_llS4_llPKT2_mmfE12temp_storage, i32 0, i32 0, i32 0, i32 11), align 4, !tbaa !19, !noalias !206
  %99 = fadd contract float %98, %97
  %100 = load float, ptr addrspace(3) getelementptr inbounds (%"struct.cub::BlockReduce<float, 1024>::TempStorage", ptr addrspace(3) @_ZZ16add_rmsnormBlockILj1024Ef6__halffEvPT1_S2_llllPKS1_llS4_llPKT2_mmfE12temp_storage, i32 0, i32 0, i32 0, i32 12), align 4, !tbaa !19, !noalias !206
  %101 = fadd contract float %100, %99
  %102 = load float, ptr addrspace(3) getelementptr inbounds (%"struct.cub::BlockReduce<float, 1024>::TempStorage", ptr addrspace(3) @_ZZ16add_rmsnormBlockILj1024Ef6__halffEvPT1_S2_llllPKS1_llS4_llPKT2_mmfE12temp_storage, i32 0, i32 0, i32 0, i32 13), align 4, !tbaa !19, !noalias !206
  %103 = fadd contract float %102, %101
  %104 = load float, ptr addrspace(3) getelementptr inbounds (%"struct.cub::BlockReduce<float, 1024>::TempStorage", ptr addrspace(3) @_ZZ16add_rmsnormBlockILj1024Ef6__halffEvPT1_S2_llllPKS1_llS4_llPKT2_mmfE12temp_storage, i32 0, i32 0, i32 0, i32 14), align 4, !tbaa !19, !noalias !206
  %105 = fadd contract float %104, %103
  %106 = load float, ptr addrspace(3) getelementptr inbounds (%"struct.cub::BlockReduce<float, 1024>::TempStorage", ptr addrspace(3) @_ZZ16add_rmsnormBlockILj1024Ef6__halffEvPT1_S2_llllPKS1_llS4_llPKT2_mmfE12temp_storage, i32 0, i32 0, i32 0, i32 15), align 4, !tbaa !19, !noalias !206
  %107 = fadd contract float %106, %105
  %108 = load float, ptr addrspace(3) getelementptr inbounds (%"struct.cub::BlockReduce<float, 1024>::TempStorage", ptr addrspace(3) @_ZZ16add_rmsnormBlockILj1024Ef6__halffEvPT1_S2_llllPKS1_llS4_llPKT2_mmfE12temp_storage, i32 0, i32 0, i32 0, i32 16), align 4, !tbaa !19, !noalias !206
  %109 = fadd contract float %108, %107
  %110 = load float, ptr addrspace(3) getelementptr inbounds (%"struct.cub::BlockReduce<float, 1024>::TempStorage", ptr addrspace(3) @_ZZ16add_rmsnormBlockILj1024Ef6__halffEvPT1_S2_llllPKS1_llS4_llPKT2_mmfE12temp_storage, i32 0, i32 0, i32 0, i32 17), align 4, !tbaa !19, !noalias !206
  %111 = fadd contract float %110, %109
  %112 = load float, ptr addrspace(3) getelementptr inbounds (%"struct.cub::BlockReduce<float, 1024>::TempStorage", ptr addrspace(3) @_ZZ16add_rmsnormBlockILj1024Ef6__halffEvPT1_S2_llllPKS1_llS4_llPKT2_mmfE12temp_storage, i32 0, i32 0, i32 0, i32 18), align 4, !tbaa !19, !noalias !206
  %113 = fadd contract float %112, %111
  %114 = load float, ptr addrspace(3) getelementptr inbounds (%"struct.cub::BlockReduce<float, 1024>::TempStorage", ptr addrspace(3) @_ZZ16add_rmsnormBlockILj1024Ef6__halffEvPT1_S2_llllPKS1_llS4_llPKT2_mmfE12temp_storage, i32 0, i32 0, i32 0, i32 19), align 4, !tbaa !19, !noalias !206
  %115 = fadd contract float %114, %113
  br label %116

116:                                              ; preds = %85, %83
  %117 = phi float [ %115, %85 ], [ %78, %83 ]
  br i1 %84, label %133, label %169

.preheader:                                       ; preds = %16, %.preheader
  %118 = phi float [ %130, %.preheader ], [ 0.000000e+00, %16 ]
  %119 = phi i64 [ %131, %.preheader ], [ %39, %16 ]
  %120 = getelementptr inbounds %struct.__half, ptr addrspace(1) %29, i64 %119
  %121 = load half, ptr addrspace(1) %120, align 2, !tbaa.struct !24, !alias.scope !200, !noalias !207, !iluvatar.noclobber !18
  %122 = fpext half %121 to float
  %123 = getelementptr inbounds %struct.__half, ptr addrspace(1) %33, i64 %119
  %124 = load half, ptr addrspace(1) %123, align 2, !tbaa.struct !24, !alias.scope !202, !noalias !208, !iluvatar.noclobber !18
  %125 = fpext half %124 to float
  %126 = fadd contract float %122, %125
  %127 = fptrunc float %126 to half
  %128 = getelementptr inbounds %struct.__half, ptr addrspace(1) %37, i64 %119
  store half %127, ptr addrspace(1) %128, align 2, !tbaa !25, !alias.scope !198, !noalias !209
  %129 = fmul contract float %126, %126
  %130 = fadd contract float %118, %129
  %131 = add i64 %119, 1024
  %132 = icmp ult i64 %131, %14
  br i1 %132, label %.preheader, label %.loopexit2, !llvm.loop !210

133:                                              ; preds = %116
  %134 = uitofp i64 %14 to float
  %135 = fdiv contract float %117, %134
  %136 = fadd contract float %135, %15
  %137 = tail call float @llvm.fabs.f32(float %136)
  %138 = fcmp contract olt float %137, 0x3810000000000000
  %139 = fmul contract float %136, 0x4170000000000000
  %140 = select i1 %138, float %139, float %136
  %141 = bitcast float %140 to i32
  %142 = add i32 %141, -8388608
  %143 = icmp ult i32 %142, 2130706432
  br i1 %143, label %144, label %165

144:                                              ; preds = %133
  %145 = and i32 %141, 16777215
  %146 = or disjoint i32 %145, 1056964608
  %147 = bitcast i32 %146 to float
  %148 = sub nsw i32 %146, %141
  %149 = add nsw i32 %148, 201326592
  %150 = select i1 %138, i32 %149, i32 %148
  %151 = tail call contract noundef float @llvm.nvvm.rsqrt.approx.ftz.f(float noundef %147) #7
  %152 = fmul contract float %151, %151
  %153 = fneg contract float %152
  %154 = tail call float @llvm.fma.f32(float %151, float %151, float %153)
  %155 = fneg contract float %147
  %156 = tail call float @llvm.fma.f32(float %152, float %155, float 1.000000e+00)
  %157 = tail call float @llvm.fma.f32(float %154, float %155, float %156)
  %158 = tail call float @llvm.fma.f32(float %157, float 3.750000e-01, float 5.000000e-01)
  %159 = fmul contract float %151, %157
  %160 = tail call float @llvm.fma.f32(float %158, float %159, float %151)
  %161 = ashr i32 %150, 1
  %162 = bitcast float %160 to i32
  %163 = add i32 %161, %162
  %164 = bitcast i32 %163 to float
  br label %167

165:                                              ; preds = %133
  %166 = tail call contract noundef float @llvm.nvvm.rsqrt.approx.ftz.f(float noundef %140) #7
  br label %167

167:                                              ; preds = %165, %144
  %168 = phi float [ %164, %144 ], [ %166, %165 ]
  store float %168, ptr addrspace(3) @_ZZ16add_rmsnormBlockILj1024Ef6__halffEvPT1_S2_llllPKS1_llS4_llPKT2_mmfE3rms, align 4, !tbaa !19, !noalias !206
  br label %169

169:                                              ; preds = %167, %116
  tail call void @llvm.bi.sl.barrier(), !noalias !206
  br i1 %40, label %170, label %.loopexit

170:                                              ; preds = %169
  %171 = load float, ptr addrspace(3) @_ZZ16add_rmsnormBlockILj1024Ef6__halffEvPT1_S2_llllPKS1_llS4_llPKT2_mmfE3rms, align 4, !tbaa !19, !noalias !206
  br label %172

172:                                              ; preds = %172, %170
  %173 = phi i64 [ %39, %170 ], [ %183, %172 ]
  %174 = getelementptr inbounds %struct.__half, ptr addrspace(1) %37, i64 %173
  %175 = load half, ptr addrspace(1) %174, align 2, !tbaa.struct !24, !alias.scope !198, !noalias !209
  %176 = fpext half %175 to float
  %177 = getelementptr inbounds float, ptr addrspace(1) %12, i64 %173
  %178 = load float, ptr addrspace(1) %177, align 4, !tbaa !19, !alias.scope !204, !noalias !211, !iluvatar.noclobber !18
  %179 = fmul contract float %178, %176
  %180 = fmul contract float %171, %179
  %181 = fptrunc float %180 to half
  %182 = getelementptr inbounds %struct.__half, ptr addrspace(1) %25, i64 %173
  store half %181, ptr addrspace(1) %182, align 2, !tbaa !25, !alias.scope !195, !noalias !212
  %183 = add i64 %173, 1024
  %184 = icmp ult i64 %183, %14
  br i1 %184, label %172, label %.loopexit, !llvm.loop !213

.loopexit:                                        ; preds = %172, %169
  ret void
}

; Function Attrs: convergent mustprogress norecurse nounwind
define dso_local iluvatar_kernel void @_Z17add_rmsnormKernelILj1024Ef13__nv_bfloat16S0_EvPT1_S2_llllPKS1_llS4_llPKT2_mmf(ptr addrspace(1) noalias nocapture noundef writeonly %0, ptr addrspace(1) noalias nocapture noundef %1, i64 noundef %2, i64 noundef %3, i64 noundef %4, i64 noundef %5, ptr addrspace(1) noalias nocapture noundef readonly %6, i64 noundef %7, i64 noundef %8, ptr addrspace(1) noalias nocapture noundef readonly %9, i64 noundef %10, i64 noundef %11, ptr addrspace(1) noalias nocapture noundef readonly %12, i64 noundef %13, i64 noundef %14, float noundef %15) local_unnamed_addr #0 comdat {
  tail call void @llvm.experimental.noalias.scope.decl(metadata !214)
  tail call void @llvm.experimental.noalias.scope.decl(metadata !217)
  tail call void @llvm.experimental.noalias.scope.decl(metadata !219)
  tail call void @llvm.experimental.noalias.scope.decl(metadata !221)
  tail call void @llvm.experimental.noalias.scope.decl(metadata !223)
  %17 = tail call noundef i32 @llvm.nvvm.read.ptx.sreg.ctaid.x(), !range !15
  %18 = zext nneg i32 %17 to i64
  %19 = udiv i64 %18, %13
  %20 = mul i64 %19, %13
  %21 = sub i64 %18, %20
  %22 = mul i64 %19, %2
  %23 = getelementptr inbounds %struct.__nv_bfloat16, ptr addrspace(1) %0, i64 %22
  %24 = mul i64 %21, %3
  %25 = getelementptr inbounds %struct.__nv_bfloat16, ptr addrspace(1) %23, i64 %24
  %26 = mul i64 %19, %7
  %27 = getelementptr inbounds %struct.__nv_bfloat16, ptr addrspace(1) %6, i64 %26
  %28 = mul i64 %21, %8
  %29 = getelementptr inbounds %struct.__nv_bfloat16, ptr addrspace(1) %27, i64 %28
  %30 = mul i64 %19, %10
  %31 = getelementptr inbounds %struct.__nv_bfloat16, ptr addrspace(1) %9, i64 %30
  %32 = mul i64 %21, %11
  %33 = getelementptr inbounds %struct.__nv_bfloat16, ptr addrspace(1) %31, i64 %32
  %34 = mul i64 %19, %4
  %35 = getelementptr inbounds %struct.__nv_bfloat16, ptr addrspace(1) %1, i64 %34
  %36 = mul i64 %21, %5
  %37 = getelementptr inbounds %struct.__nv_bfloat16, ptr addrspace(1) %35, i64 %36
  %38 = tail call noundef i32 @llvm.nvvm.read.ptx.sreg.tid.x(), !range !16
  %39 = zext nneg i32 %38 to i64
  %40 = icmp ult i64 %39, %14
  br i1 %40, label %.preheader, label %.loopexit3

.loopexit3:                                       ; preds = %.preheader, %16
  %41 = phi float [ 0.000000e+00, %16 ], [ %130, %.preheader ]
  %42 = tail call noundef i32 @llvm.bi.lane.id(), !range !17, !noundef !18
  %43 = icmp ne i32 %42, 63
  %44 = zext i1 %43 to i32
  %45 = add nuw nsw i32 %42, %44
  %46 = tail call contract float @llvm.bi.slb.shfl.idx.b32.f32(float %41, i32 %45)
  %47 = select i1 %43, float %41, float -0.000000e+00
  %48 = fadd contract float %46, %47
  %49 = add nuw nsw i32 %42, 2
  %50 = icmp ugt i32 %42, 61
  %51 = select i1 %50, i32 %42, i32 %49
  %52 = tail call contract float @llvm.bi.slb.shfl.idx.b32.f32(float %48, i32 %51)
  %53 = select i1 %50, float -0.000000e+00, float %48
  %54 = fadd contract float %52, %53
  %55 = add nuw nsw i32 %42, 4
  %56 = icmp ugt i32 %42, 59
  %57 = select i1 %56, i32 %42, i32 %55
  %58 = tail call contract float @llvm.bi.slb.shfl.idx.b32.f32(float %54, i32 %57)
  %59 = select i1 %56, float -0.000000e+00, float %54
  %60 = fadd contract float %58, %59
  %61 = add nuw nsw i32 %42, 8
  %62 = icmp ugt i32 %42, 55
  %63 = select i1 %62, i32 %42, i32 %61
  %64 = tail call contract float @llvm.bi.slb.shfl.idx.b32.f32(float %60, i32 %63)
  %65 = select i1 %62, float -0.000000e+00, float %60
  %66 = fadd contract float %64, %65
  %67 = add nuw nsw i32 %42, 16
  %68 = icmp ugt i32 %42, 47
  %69 = select i1 %68, i32 %42, i32 %67
  %70 = tail call contract float @llvm.bi.slb.shfl.idx.b32.f32(float %66, i32 %69)
  %71 = select i1 %68, float -0.000000e+00, float %66
  %72 = fadd contract float %70, %71
  %73 = add nuw nsw i32 %42, 32
  %74 = icmp ugt i32 %42, 31
  %75 = select i1 %74, i32 %42, i32 %73
  %76 = tail call contract float @llvm.bi.slb.shfl.idx.b32.f32(float %72, i32 %75)
  %77 = select i1 %74, float -0.000000e+00, float %72
  %78 = fadd contract float %76, %77
  %79 = icmp eq i32 %42, 0
  br i1 %79, label %80, label %83

80:                                               ; preds = %.loopexit3
  %81 = lshr i32 %38, 6
  %82 = getelementptr inbounds %"struct.cub::BlockReduceWarpReductions<float, 1024, 1, 1, 300>::_TempStorage", ptr addrspace(3) @_ZZ16add_rmsnormBlockILj1024Ef13__nv_bfloat16S0_EvPT1_S2_llllPKS1_llS4_llPKT2_mmfE12temp_storage, i32 0, i32 1, i32 %81
  store float %78, ptr addrspace(3) %82, align 4, !tbaa !19, !noalias !225
  br label %83

83:                                               ; preds = %80, %.loopexit3
  tail call void @llvm.bi.sl.barrier(), !noalias !225
  %84 = icmp eq i32 %38, 0
  br i1 %84, label %85, label %116

85:                                               ; preds = %83
  %86 = load float, ptr addrspace(3) getelementptr inbounds (%"struct.cub::BlockReduce<float, 1024>::TempStorage", ptr addrspace(3) @_ZZ16add_rmsnormBlockILj1024Ef13__nv_bfloat16S0_EvPT1_S2_llllPKS1_llS4_llPKT2_mmfE12temp_storage, i32 0, i32 0, i32 0, i32 5), align 4, !tbaa !19, !noalias !225
  %87 = fadd contract float %78, %86
  %88 = load float, ptr addrspace(3) getelementptr inbounds (%"struct.cub::BlockReduce<float, 1024>::TempStorage", ptr addrspace(3) @_ZZ16add_rmsnormBlockILj1024Ef13__nv_bfloat16S0_EvPT1_S2_llllPKS1_llS4_llPKT2_mmfE12temp_storage, i32 0, i32 0, i32 0, i32 6), align 4, !tbaa !19, !noalias !225
  %89 = fadd contract float %88, %87
  %90 = load float, ptr addrspace(3) getelementptr inbounds (%"struct.cub::BlockReduce<float, 1024>::TempStorage", ptr addrspace(3) @_ZZ16add_rmsnormBlockILj1024Ef13__nv_bfloat16S0_EvPT1_S2_llllPKS1_llS4_llPKT2_mmfE12temp_storage, i32 0, i32 0, i32 0, i32 7), align 4, !tbaa !19, !noalias !225
  %91 = fadd contract float %90, %89
  %92 = load float, ptr addrspace(3) getelementptr inbounds (%"struct.cub::BlockReduce<float, 1024>::TempStorage", ptr addrspace(3) @_ZZ16add_rmsnormBlockILj1024Ef13__nv_bfloat16S0_EvPT1_S2_llllPKS1_llS4_llPKT2_mmfE12temp_storage, i32 0, i32 0, i32 0, i32 8), align 4, !tbaa !19, !noalias !225
  %93 = fadd contract float %92, %91
  %94 = load float, ptr addrspace(3) getelementptr inbounds (%"struct.cub::BlockReduce<float, 1024>::TempStorage", ptr addrspace(3) @_ZZ16add_rmsnormBlockILj1024Ef13__nv_bfloat16S0_EvPT1_S2_llllPKS1_llS4_llPKT2_mmfE12temp_storage, i32 0, i32 0, i32 0, i32 9), align 4, !tbaa !19, !noalias !225
  %95 = fadd contract float %94, %93
  %96 = load float, ptr addrspace(3) getelementptr inbounds (%"struct.cub::BlockReduce<float, 1024>::TempStorage", ptr addrspace(3) @_ZZ16add_rmsnormBlockILj1024Ef13__nv_bfloat16S0_EvPT1_S2_llllPKS1_llS4_llPKT2_mmfE12temp_storage, i32 0, i32 0, i32 0, i32 10), align 4, !tbaa !19, !noalias !225
  %97 = fadd contract float %96, %95
  %98 = load float, ptr addrspace(3) getelementptr inbounds (%"struct.cub::BlockReduce<float, 1024>::TempStorage", ptr addrspace(3) @_ZZ16add_rmsnormBlockILj1024Ef13__nv_bfloat16S0_EvPT1_S2_llllPKS1_llS4_llPKT2_mmfE12temp_storage, i32 0, i32 0, i32 0, i32 11), align 4, !tbaa !19, !noalias !225
  %99 = fadd contract float %98, %97
  %100 = load float, ptr addrspace(3) getelementptr inbounds (%"struct.cub::BlockReduce<float, 1024>::TempStorage", ptr addrspace(3) @_ZZ16add_rmsnormBlockILj1024Ef13__nv_bfloat16S0_EvPT1_S2_llllPKS1_llS4_llPKT2_mmfE12temp_storage, i32 0, i32 0, i32 0, i32 12), align 4, !tbaa !19, !noalias !225
  %101 = fadd contract float %100, %99
  %102 = load float, ptr addrspace(3) getelementptr inbounds (%"struct.cub::BlockReduce<float, 1024>::TempStorage", ptr addrspace(3) @_ZZ16add_rmsnormBlockILj1024Ef13__nv_bfloat16S0_EvPT1_S2_llllPKS1_llS4_llPKT2_mmfE12temp_storage, i32 0, i32 0, i32 0, i32 13), align 4, !tbaa !19, !noalias !225
  %103 = fadd contract float %102, %101
  %104 = load float, ptr addrspace(3) getelementptr inbounds (%"struct.cub::BlockReduce<float, 1024>::TempStorage", ptr addrspace(3) @_ZZ16add_rmsnormBlockILj1024Ef13__nv_bfloat16S0_EvPT1_S2_llllPKS1_llS4_llPKT2_mmfE12temp_storage, i32 0, i32 0, i32 0, i32 14), align 4, !tbaa !19, !noalias !225
  %105 = fadd contract float %104, %103
  %106 = load float, ptr addrspace(3) getelementptr inbounds (%"struct.cub::BlockReduce<float, 1024>::TempStorage", ptr addrspace(3) @_ZZ16add_rmsnormBlockILj1024Ef13__nv_bfloat16S0_EvPT1_S2_llllPKS1_llS4_llPKT2_mmfE12temp_storage, i32 0, i32 0, i32 0, i32 15), align 4, !tbaa !19, !noalias !225
  %107 = fadd contract float %106, %105
  %108 = load float, ptr addrspace(3) getelementptr inbounds (%"struct.cub::BlockReduce<float, 1024>::TempStorage", ptr addrspace(3) @_ZZ16add_rmsnormBlockILj1024Ef13__nv_bfloat16S0_EvPT1_S2_llllPKS1_llS4_llPKT2_mmfE12temp_storage, i32 0, i32 0, i32 0, i32 16), align 4, !tbaa !19, !noalias !225
  %109 = fadd contract float %108, %107
  %110 = load float, ptr addrspace(3) getelementptr inbounds (%"struct.cub::BlockReduce<float, 1024>::TempStorage", ptr addrspace(3) @_ZZ16add_rmsnormBlockILj1024Ef13__nv_bfloat16S0_EvPT1_S2_llllPKS1_llS4_llPKT2_mmfE12temp_storage, i32 0, i32 0, i32 0, i32 17), align 4, !tbaa !19, !noalias !225
  %111 = fadd contract float %110, %109
  %112 = load float, ptr addrspace(3) getelementptr inbounds (%"struct.cub::BlockReduce<float, 1024>::TempStorage", ptr addrspace(3) @_ZZ16add_rmsnormBlockILj1024Ef13__nv_bfloat16S0_EvPT1_S2_llllPKS1_llS4_llPKT2_mmfE12temp_storage, i32 0, i32 0, i32 0, i32 18), align 4, !tbaa !19, !noalias !225
  %113 = fadd contract float %112, %111
  %114 = load float, ptr addrspace(3) getelementptr inbounds (%"struct.cub::BlockReduce<float, 1024>::TempStorage", ptr addrspace(3) @_ZZ16add_rmsnormBlockILj1024Ef13__nv_bfloat16S0_EvPT1_S2_llllPKS1_llS4_llPKT2_mmfE12temp_storage, i32 0, i32 0, i32 0, i32 19), align 4, !tbaa !19, !noalias !225
  %115 = fadd contract float %114, %113
  br label %116

116:                                              ; preds = %85, %83
  %117 = phi float [ %115, %85 ], [ %78, %83 ]
  br i1 %84, label %133, label %169

.preheader:                                       ; preds = %16, %.preheader
  %118 = phi float [ %130, %.preheader ], [ 0.000000e+00, %16 ]
  %119 = phi i64 [ %131, %.preheader ], [ %39, %16 ]
  %120 = getelementptr inbounds %struct.__nv_bfloat16, ptr addrspace(1) %29, i64 %119
  %121 = load bfloat, ptr addrspace(1) %120, align 2, !tbaa.struct !24, !alias.scope !219, !noalias !226, !iluvatar.noclobber !18
  %122 = fpext bfloat %121 to float
  %123 = getelementptr inbounds %struct.__nv_bfloat16, ptr addrspace(1) %33, i64 %119
  %124 = load bfloat, ptr addrspace(1) %123, align 2, !tbaa.struct !24, !alias.scope !221, !noalias !227, !iluvatar.noclobber !18
  %125 = fpext bfloat %124 to float
  %126 = fadd contract float %122, %125
  %127 = fptrunc float %126 to bfloat
  %128 = getelementptr inbounds %struct.__nv_bfloat16, ptr addrspace(1) %37, i64 %119
  store bfloat %127, ptr addrspace(1) %128, align 2, !tbaa !25, !alias.scope !217, !noalias !228
  %129 = fmul contract float %126, %126
  %130 = fadd contract float %118, %129
  %131 = add i64 %119, 1024
  %132 = icmp ult i64 %131, %14
  br i1 %132, label %.preheader, label %.loopexit3, !llvm.loop !229

133:                                              ; preds = %116
  %134 = uitofp i64 %14 to float
  %135 = fdiv contract float %117, %134
  %136 = fadd contract float %135, %15
  %137 = tail call float @llvm.fabs.f32(float %136)
  %138 = fcmp contract olt float %137, 0x3810000000000000
  %139 = fmul contract float %136, 0x4170000000000000
  %140 = select i1 %138, float %139, float %136
  %141 = bitcast float %140 to i32
  %142 = add i32 %141, -8388608
  %143 = icmp ult i32 %142, 2130706432
  br i1 %143, label %144, label %165

144:                                              ; preds = %133
  %145 = and i32 %141, 16777215
  %146 = or disjoint i32 %145, 1056964608
  %147 = bitcast i32 %146 to float
  %148 = sub nsw i32 %146, %141
  %149 = add nsw i32 %148, 201326592
  %150 = select i1 %138, i32 %149, i32 %148
  %151 = tail call contract noundef float @llvm.nvvm.rsqrt.approx.ftz.f(float noundef %147) #7
  %152 = fmul contract float %151, %151
  %153 = fneg contract float %152
  %154 = tail call float @llvm.fma.f32(float %151, float %151, float %153)
  %155 = fneg contract float %147
  %156 = tail call float @llvm.fma.f32(float %152, float %155, float 1.000000e+00)
  %157 = tail call float @llvm.fma.f32(float %154, float %155, float %156)
  %158 = tail call float @llvm.fma.f32(float %157, float 3.750000e-01, float 5.000000e-01)
  %159 = fmul contract float %151, %157
  %160 = tail call float @llvm.fma.f32(float %158, float %159, float %151)
  %161 = ashr i32 %150, 1
  %162 = bitcast float %160 to i32
  %163 = add i32 %161, %162
  %164 = bitcast i32 %163 to float
  br label %167

165:                                              ; preds = %133
  %166 = tail call contract noundef float @llvm.nvvm.rsqrt.approx.ftz.f(float noundef %140) #7
  br label %167

167:                                              ; preds = %165, %144
  %168 = phi float [ %164, %144 ], [ %166, %165 ]
  store float %168, ptr addrspace(3) @_ZZ16add_rmsnormBlockILj1024Ef13__nv_bfloat16S0_EvPT1_S2_llllPKS1_llS4_llPKT2_mmfE3rms, align 4, !tbaa !19, !noalias !225
  br label %169

169:                                              ; preds = %167, %116
  tail call void @llvm.bi.sl.barrier(), !noalias !225
  br i1 %40, label %170, label %.loopexit

170:                                              ; preds = %169
  %171 = load float, ptr addrspace(3) @_ZZ16add_rmsnormBlockILj1024Ef13__nv_bfloat16S0_EvPT1_S2_llllPKS1_llS4_llPKT2_mmfE3rms, align 4, !tbaa !19, !noalias !225
  %172 = xor i64 %39, -1
  %173 = add i64 %172, %14
  %174 = lshr i64 %173, 10
  %175 = add nuw nsw i64 %174, 1
  %176 = icmp ult i64 %173, 1024
  br i1 %176, label %.preheader4, label %177

177:                                              ; preds = %170
  %178 = and i64 %175, 36028797018963966
  %179 = shl i64 %178, 10
  %180 = insertelement <2 x float> poison, float %171, i64 0
  %181 = shufflevector <2 x float> %180, <2 x float> poison, <2 x i32> zeroinitializer
  br label %182

182:                                              ; preds = %182, %177
  %183 = phi i64 [ 0, %177 ], [ %208, %182 ]
  %184 = shl i64 %183, 10
  %185 = add i64 %184, %39
  %186 = add i64 %185, 1024
  %187 = getelementptr inbounds %struct.__nv_bfloat16, ptr addrspace(1) %37, i64 %185
  %188 = getelementptr inbounds %struct.__nv_bfloat16, ptr addrspace(1) %37, i64 %186
  %189 = load bfloat, ptr addrspace(1) %187, align 2, !tbaa.struct !24, !alias.scope !217, !noalias !228
  %190 = load bfloat, ptr addrspace(1) %188, align 2, !tbaa.struct !24, !alias.scope !217, !noalias !228
  %191 = insertelement <2 x bfloat> poison, bfloat %189, i64 0
  %192 = insertelement <2 x bfloat> %191, bfloat %190, i64 1
  %193 = fpext <2 x bfloat> %192 to <2 x float>
  %194 = getelementptr inbounds %struct.__nv_bfloat16, ptr addrspace(1) %12, i64 %185
  %195 = getelementptr inbounds %struct.__nv_bfloat16, ptr addrspace(1) %12, i64 %186
  %196 = load bfloat, ptr addrspace(1) %194, align 2, !tbaa.struct !24, !alias.scope !223, !noalias !230, !iluvatar.noclobber !18
  %197 = load bfloat, ptr addrspace(1) %195, align 2, !tbaa.struct !24, !alias.scope !223, !noalias !230, !iluvatar.noclobber !18
  %198 = insertelement <2 x bfloat> poison, bfloat %196, i64 0
  %199 = insertelement <2 x bfloat> %198, bfloat %197, i64 1
  %200 = fpext <2 x bfloat> %199 to <2 x float>
  %201 = fmul contract <2 x float> %193, %200
  %202 = fmul contract <2 x float> %181, %201
  %203 = fptrunc <2 x float> %202 to <2 x bfloat>
  %204 = getelementptr inbounds %struct.__nv_bfloat16, ptr addrspace(1) %25, i64 %185
  %205 = getelementptr inbounds %struct.__nv_bfloat16, ptr addrspace(1) %25, i64 %186
  %206 = extractelement <2 x bfloat> %203, i64 0
  store bfloat %206, ptr addrspace(1) %204, align 2, !tbaa !25, !alias.scope !214, !noalias !231
  %207 = extractelement <2 x bfloat> %203, i64 1
  store bfloat %207, ptr addrspace(1) %205, align 2, !tbaa !25, !alias.scope !214, !noalias !231
  %208 = add nuw i64 %183, 2
  %209 = icmp eq i64 %208, %178
  br i1 %209, label %210, label %182, !llvm.loop !232

210:                                              ; preds = %182
  %211 = add i64 %179, %39
  %212 = icmp eq i64 %175, %178
  br i1 %212, label %.loopexit, label %.preheader4

.preheader4:                                      ; preds = %210, %170
  %.ph = phi i64 [ %211, %210 ], [ %39, %170 ]
  br label %213

213:                                              ; preds = %.preheader4, %213
  %214 = phi i64 [ %225, %213 ], [ %.ph, %.preheader4 ]
  %215 = getelementptr inbounds %struct.__nv_bfloat16, ptr addrspace(1) %37, i64 %214
  %216 = load bfloat, ptr addrspace(1) %215, align 2, !tbaa.struct !24, !alias.scope !217, !noalias !228
  %217 = fpext bfloat %216 to float
  %218 = getelementptr inbounds %struct.__nv_bfloat16, ptr addrspace(1) %12, i64 %214
  %219 = load bfloat, ptr addrspace(1) %218, align 2, !tbaa.struct !24, !alias.scope !223, !noalias !230, !iluvatar.noclobber !18
  %220 = fpext bfloat %219 to float
  %221 = fmul contract float %217, %220
  %222 = fmul contract float %171, %221
  %223 = fptrunc float %222 to bfloat
  %224 = getelementptr inbounds %struct.__nv_bfloat16, ptr addrspace(1) %25, i64 %214
  store bfloat %223, ptr addrspace(1) %224, align 2, !tbaa !25, !alias.scope !214, !noalias !231
  %225 = add i64 %214, 1024
  %226 = icmp ult i64 %225, %14
  br i1 %226, label %213, label %.loopexit, !llvm.loop !233

.loopexit:                                        ; preds = %213, %210, %169
  ret void
}

; Function Attrs: convergent mustprogress norecurse nounwind
define dso_local iluvatar_kernel void @_Z17add_rmsnormKernelILj1024Ef13__nv_bfloat166__halfEvPT1_S3_llllPKS2_llS5_llPKT2_mmf(ptr addrspace(1) noalias nocapture noundef writeonly %0, ptr addrspace(1) noalias nocapture noundef %1, i64 noundef %2, i64 noundef %3, i64 noundef %4, i64 noundef %5, ptr addrspace(1) noalias nocapture noundef readonly %6, i64 noundef %7, i64 noundef %8, ptr addrspace(1) noalias nocapture noundef readonly %9, i64 noundef %10, i64 noundef %11, ptr addrspace(1) noalias nocapture noundef readonly %12, i64 noundef %13, i64 noundef %14, float noundef %15) local_unnamed_addr #0 comdat {
  tail call void @llvm.experimental.noalias.scope.decl(metadata !234)
  tail call void @llvm.experimental.noalias.scope.decl(metadata !237)
  tail call void @llvm.experimental.noalias.scope.decl(metadata !239)
  tail call void @llvm.experimental.noalias.scope.decl(metadata !241)
  tail call void @llvm.experimental.noalias.scope.decl(metadata !243)
  %17 = tail call noundef i32 @llvm.nvvm.read.ptx.sreg.ctaid.x(), !range !15
  %18 = zext nneg i32 %17 to i64
  %19 = udiv i64 %18, %13
  %20 = mul i64 %19, %13
  %21 = sub i64 %18, %20
  %22 = mul i64 %19, %2
  %23 = getelementptr inbounds %struct.__nv_bfloat16, ptr addrspace(1) %0, i64 %22
  %24 = mul i64 %21, %3
  %25 = getelementptr inbounds %struct.__nv_bfloat16, ptr addrspace(1) %23, i64 %24
  %26 = mul i64 %19, %7
  %27 = getelementptr inbounds %struct.__nv_bfloat16, ptr addrspace(1) %6, i64 %26
  %28 = mul i64 %21, %8
  %29 = getelementptr inbounds %struct.__nv_bfloat16, ptr addrspace(1) %27, i64 %28
  %30 = mul i64 %19, %10
  %31 = getelementptr inbounds %struct.__nv_bfloat16, ptr addrspace(1) %9, i64 %30
  %32 = mul i64 %21, %11
  %33 = getelementptr inbounds %struct.__nv_bfloat16, ptr addrspace(1) %31, i64 %32
  %34 = mul i64 %19, %4
  %35 = getelementptr inbounds %struct.__nv_bfloat16, ptr addrspace(1) %1, i64 %34
  %36 = mul i64 %21, %5
  %37 = getelementptr inbounds %struct.__nv_bfloat16, ptr addrspace(1) %35, i64 %36
  %38 = tail call noundef i32 @llvm.nvvm.read.ptx.sreg.tid.x(), !range !16
  %39 = zext nneg i32 %38 to i64
  %40 = icmp ult i64 %39, %14
  br i1 %40, label %.preheader, label %.loopexit3

.loopexit3:                                       ; preds = %.preheader, %16
  %41 = phi float [ 0.000000e+00, %16 ], [ %130, %.preheader ]
  %42 = tail call noundef i32 @llvm.bi.lane.id(), !range !17, !noundef !18
  %43 = icmp ne i32 %42, 63
  %44 = zext i1 %43 to i32
  %45 = add nuw nsw i32 %42, %44
  %46 = tail call contract float @llvm.bi.slb.shfl.idx.b32.f32(float %41, i32 %45)
  %47 = select i1 %43, float %41, float -0.000000e+00
  %48 = fadd contract float %46, %47
  %49 = add nuw nsw i32 %42, 2
  %50 = icmp ugt i32 %42, 61
  %51 = select i1 %50, i32 %42, i32 %49
  %52 = tail call contract float @llvm.bi.slb.shfl.idx.b32.f32(float %48, i32 %51)
  %53 = select i1 %50, float -0.000000e+00, float %48
  %54 = fadd contract float %52, %53
  %55 = add nuw nsw i32 %42, 4
  %56 = icmp ugt i32 %42, 59
  %57 = select i1 %56, i32 %42, i32 %55
  %58 = tail call contract float @llvm.bi.slb.shfl.idx.b32.f32(float %54, i32 %57)
  %59 = select i1 %56, float -0.000000e+00, float %54
  %60 = fadd contract float %58, %59
  %61 = add nuw nsw i32 %42, 8
  %62 = icmp ugt i32 %42, 55
  %63 = select i1 %62, i32 %42, i32 %61
  %64 = tail call contract float @llvm.bi.slb.shfl.idx.b32.f32(float %60, i32 %63)
  %65 = select i1 %62, float -0.000000e+00, float %60
  %66 = fadd contract float %64, %65
  %67 = add nuw nsw i32 %42, 16
  %68 = icmp ugt i32 %42, 47
  %69 = select i1 %68, i32 %42, i32 %67
  %70 = tail call contract float @llvm.bi.slb.shfl.idx.b32.f32(float %66, i32 %69)
  %71 = select i1 %68, float -0.000000e+00, float %66
  %72 = fadd contract float %70, %71
  %73 = add nuw nsw i32 %42, 32
  %74 = icmp ugt i32 %42, 31
  %75 = select i1 %74, i32 %42, i32 %73
  %76 = tail call contract float @llvm.bi.slb.shfl.idx.b32.f32(float %72, i32 %75)
  %77 = select i1 %74, float -0.000000e+00, float %72
  %78 = fadd contract float %76, %77
  %79 = icmp eq i32 %42, 0
  br i1 %79, label %80, label %83

80:                                               ; preds = %.loopexit3
  %81 = lshr i32 %38, 6
  %82 = getelementptr inbounds %"struct.cub::BlockReduceWarpReductions<float, 1024, 1, 1, 300>::_TempStorage", ptr addrspace(3) @_ZZ16add_rmsnormBlockILj1024Ef13__nv_bfloat166__halfEvPT1_S3_llllPKS2_llS5_llPKT2_mmfE12temp_storage, i32 0, i32 1, i32 %81
  store float %78, ptr addrspace(3) %82, align 4, !tbaa !19, !noalias !245
  br label %83

83:                                               ; preds = %80, %.loopexit3
  tail call void @llvm.bi.sl.barrier(), !noalias !245
  %84 = icmp eq i32 %38, 0
  br i1 %84, label %85, label %116

85:                                               ; preds = %83
  %86 = load float, ptr addrspace(3) getelementptr inbounds (%"struct.cub::BlockReduce<float, 1024>::TempStorage", ptr addrspace(3) @_ZZ16add_rmsnormBlockILj1024Ef13__nv_bfloat166__halfEvPT1_S3_llllPKS2_llS5_llPKT2_mmfE12temp_storage, i32 0, i32 0, i32 0, i32 5), align 4, !tbaa !19, !noalias !245
  %87 = fadd contract float %78, %86
  %88 = load float, ptr addrspace(3) getelementptr inbounds (%"struct.cub::BlockReduce<float, 1024>::TempStorage", ptr addrspace(3) @_ZZ16add_rmsnormBlockILj1024Ef13__nv_bfloat166__halfEvPT1_S3_llllPKS2_llS5_llPKT2_mmfE12temp_storage, i32 0, i32 0, i32 0, i32 6), align 4, !tbaa !19, !noalias !245
  %89 = fadd contract float %88, %87
  %90 = load float, ptr addrspace(3) getelementptr inbounds (%"struct.cub::BlockReduce<float, 1024>::TempStorage", ptr addrspace(3) @_ZZ16add_rmsnormBlockILj1024Ef13__nv_bfloat166__halfEvPT1_S3_llllPKS2_llS5_llPKT2_mmfE12temp_storage, i32 0, i32 0, i32 0, i32 7), align 4, !tbaa !19, !noalias !245
  %91 = fadd contract float %90, %89
  %92 = load float, ptr addrspace(3) getelementptr inbounds (%"struct.cub::BlockReduce<float, 1024>::TempStorage", ptr addrspace(3) @_ZZ16add_rmsnormBlockILj1024Ef13__nv_bfloat166__halfEvPT1_S3_llllPKS2_llS5_llPKT2_mmfE12temp_storage, i32 0, i32 0, i32 0, i32 8), align 4, !tbaa !19, !noalias !245
  %93 = fadd contract float %92, %91
  %94 = load float, ptr addrspace(3) getelementptr inbounds (%"struct.cub::BlockReduce<float, 1024>::TempStorage", ptr addrspace(3) @_ZZ16add_rmsnormBlockILj1024Ef13__nv_bfloat166__halfEvPT1_S3_llllPKS2_llS5_llPKT2_mmfE12temp_storage, i32 0, i32 0, i32 0, i32 9), align 4, !tbaa !19, !noalias !245
  %95 = fadd contract float %94, %93
  %96 = load float, ptr addrspace(3) getelementptr inbounds (%"struct.cub::BlockReduce<float, 1024>::TempStorage", ptr addrspace(3) @_ZZ16add_rmsnormBlockILj1024Ef13__nv_bfloat166__halfEvPT1_S3_llllPKS2_llS5_llPKT2_mmfE12temp_storage, i32 0, i32 0, i32 0, i32 10), align 4, !tbaa !19, !noalias !245
  %97 = fadd contract float %96, %95
  %98 = load float, ptr addrspace(3) getelementptr inbounds (%"struct.cub::BlockReduce<float, 1024>::TempStorage", ptr addrspace(3) @_ZZ16add_rmsnormBlockILj1024Ef13__nv_bfloat166__halfEvPT1_S3_llllPKS2_llS5_llPKT2_mmfE12temp_storage, i32 0, i32 0, i32 0, i32 11), align 4, !tbaa !19, !noalias !245
  %99 = fadd contract float %98, %97
  %100 = load float, ptr addrspace(3) getelementptr inbounds (%"struct.cub::BlockReduce<float, 1024>::TempStorage", ptr addrspace(3) @_ZZ16add_rmsnormBlockILj1024Ef13__nv_bfloat166__halfEvPT1_S3_llllPKS2_llS5_llPKT2_mmfE12temp_storage, i32 0, i32 0, i32 0, i32 12), align 4, !tbaa !19, !noalias !245
  %101 = fadd contract float %100, %99
  %102 = load float, ptr addrspace(3) getelementptr inbounds (%"struct.cub::BlockReduce<float, 1024>::TempStorage", ptr addrspace(3) @_ZZ16add_rmsnormBlockILj1024Ef13__nv_bfloat166__halfEvPT1_S3_llllPKS2_llS5_llPKT2_mmfE12temp_storage, i32 0, i32 0, i32 0, i32 13), align 4, !tbaa !19, !noalias !245
  %103 = fadd contract float %102, %101
  %104 = load float, ptr addrspace(3) getelementptr inbounds (%"struct.cub::BlockReduce<float, 1024>::TempStorage", ptr addrspace(3) @_ZZ16add_rmsnormBlockILj1024Ef13__nv_bfloat166__halfEvPT1_S3_llllPKS2_llS5_llPKT2_mmfE12temp_storage, i32 0, i32 0, i32 0, i32 14), align 4, !tbaa !19, !noalias !245
  %105 = fadd contract float %104, %103
  %106 = load float, ptr addrspace(3) getelementptr inbounds (%"struct.cub::BlockReduce<float, 1024>::TempStorage", ptr addrspace(3) @_ZZ16add_rmsnormBlockILj1024Ef13__nv_bfloat166__halfEvPT1_S3_llllPKS2_llS5_llPKT2_mmfE12temp_storage, i32 0, i32 0, i32 0, i32 15), align 4, !tbaa !19, !noalias !245
  %107 = fadd contract float %106, %105
  %108 = load float, ptr addrspace(3) getelementptr inbounds (%"struct.cub::BlockReduce<float, 1024>::TempStorage", ptr addrspace(3) @_ZZ16add_rmsnormBlockILj1024Ef13__nv_bfloat166__halfEvPT1_S3_llllPKS2_llS5_llPKT2_mmfE12temp_storage, i32 0, i32 0, i32 0, i32 16), align 4, !tbaa !19, !noalias !245
  %109 = fadd contract float %108, %107
  %110 = load float, ptr addrspace(3) getelementptr inbounds (%"struct.cub::BlockReduce<float, 1024>::TempStorage", ptr addrspace(3) @_ZZ16add_rmsnormBlockILj1024Ef13__nv_bfloat166__halfEvPT1_S3_llllPKS2_llS5_llPKT2_mmfE12temp_storage, i32 0, i32 0, i32 0, i32 17), align 4, !tbaa !19, !noalias !245
  %111 = fadd contract float %110, %109
  %112 = load float, ptr addrspace(3) getelementptr inbounds (%"struct.cub::BlockReduce<float, 1024>::TempStorage", ptr addrspace(3) @_ZZ16add_rmsnormBlockILj1024Ef13__nv_bfloat166__halfEvPT1_S3_llllPKS2_llS5_llPKT2_mmfE12temp_storage, i32 0, i32 0, i32 0, i32 18), align 4, !tbaa !19, !noalias !245
  %113 = fadd contract float %112, %111
  %114 = load float, ptr addrspace(3) getelementptr inbounds (%"struct.cub::BlockReduce<float, 1024>::TempStorage", ptr addrspace(3) @_ZZ16add_rmsnormBlockILj1024Ef13__nv_bfloat166__halfEvPT1_S3_llllPKS2_llS5_llPKT2_mmfE12temp_storage, i32 0, i32 0, i32 0, i32 19), align 4, !tbaa !19, !noalias !245
  %115 = fadd contract float %114, %113
  br label %116

116:                                              ; preds = %85, %83
  %117 = phi float [ %115, %85 ], [ %78, %83 ]
  br i1 %84, label %133, label %169

.preheader:                                       ; preds = %16, %.preheader
  %118 = phi float [ %130, %.preheader ], [ 0.000000e+00, %16 ]
  %119 = phi i64 [ %131, %.preheader ], [ %39, %16 ]
  %120 = getelementptr inbounds %struct.__nv_bfloat16, ptr addrspace(1) %29, i64 %119
  %121 = load bfloat, ptr addrspace(1) %120, align 2, !tbaa.struct !24, !alias.scope !239, !noalias !246, !iluvatar.noclobber !18
  %122 = fpext bfloat %121 to float
  %123 = getelementptr inbounds %struct.__nv_bfloat16, ptr addrspace(1) %33, i64 %119
  %124 = load bfloat, ptr addrspace(1) %123, align 2, !tbaa.struct !24, !alias.scope !241, !noalias !247, !iluvatar.noclobber !18
  %125 = fpext bfloat %124 to float
  %126 = fadd contract float %122, %125
  %127 = fptrunc float %126 to bfloat
  %128 = getelementptr inbounds %struct.__nv_bfloat16, ptr addrspace(1) %37, i64 %119
  store bfloat %127, ptr addrspace(1) %128, align 2, !tbaa !25, !alias.scope !237, !noalias !248
  %129 = fmul contract float %126, %126
  %130 = fadd contract float %118, %129
  %131 = add i64 %119, 1024
  %132 = icmp ult i64 %131, %14
  br i1 %132, label %.preheader, label %.loopexit3, !llvm.loop !249

133:                                              ; preds = %116
  %134 = uitofp i64 %14 to float
  %135 = fdiv contract float %117, %134
  %136 = fadd contract float %135, %15
  %137 = tail call float @llvm.fabs.f32(float %136)
  %138 = fcmp contract olt float %137, 0x3810000000000000
  %139 = fmul contract float %136, 0x4170000000000000
  %140 = select i1 %138, float %139, float %136
  %141 = bitcast float %140 to i32
  %142 = add i32 %141, -8388608
  %143 = icmp ult i32 %142, 2130706432
  br i1 %143, label %144, label %165

144:                                              ; preds = %133
  %145 = and i32 %141, 16777215
  %146 = or disjoint i32 %145, 1056964608
  %147 = bitcast i32 %146 to float
  %148 = sub nsw i32 %146, %141
  %149 = add nsw i32 %148, 201326592
  %150 = select i1 %138, i32 %149, i32 %148
  %151 = tail call contract noundef float @llvm.nvvm.rsqrt.approx.ftz.f(float noundef %147) #7
  %152 = fmul contract float %151, %151
  %153 = fneg contract float %152
  %154 = tail call float @llvm.fma.f32(float %151, float %151, float %153)
  %155 = fneg contract float %147
  %156 = tail call float @llvm.fma.f32(float %152, float %155, float 1.000000e+00)
  %157 = tail call float @llvm.fma.f32(float %154, float %155, float %156)
  %158 = tail call float @llvm.fma.f32(float %157, float 3.750000e-01, float 5.000000e-01)
  %159 = fmul contract float %151, %157
  %160 = tail call float @llvm.fma.f32(float %158, float %159, float %151)
  %161 = ashr i32 %150, 1
  %162 = bitcast float %160 to i32
  %163 = add i32 %161, %162
  %164 = bitcast i32 %163 to float
  br label %167

165:                                              ; preds = %133
  %166 = tail call contract noundef float @llvm.nvvm.rsqrt.approx.ftz.f(float noundef %140) #7
  br label %167

167:                                              ; preds = %165, %144
  %168 = phi float [ %164, %144 ], [ %166, %165 ]
  store float %168, ptr addrspace(3) @_ZZ16add_rmsnormBlockILj1024Ef13__nv_bfloat166__halfEvPT1_S3_llllPKS2_llS5_llPKT2_mmfE3rms, align 4, !tbaa !19, !noalias !245
  br label %169

169:                                              ; preds = %167, %116
  tail call void @llvm.bi.sl.barrier(), !noalias !245
  br i1 %40, label %170, label %.loopexit

170:                                              ; preds = %169
  %171 = load float, ptr addrspace(3) @_ZZ16add_rmsnormBlockILj1024Ef13__nv_bfloat166__halfEvPT1_S3_llllPKS2_llS5_llPKT2_mmfE3rms, align 4, !tbaa !19, !noalias !245
  %172 = xor i64 %39, -1
  %173 = add i64 %172, %14
  %174 = lshr i64 %173, 10
  %175 = add nuw nsw i64 %174, 1
  %176 = icmp ult i64 %173, 1024
  br i1 %176, label %.preheader4, label %177

177:                                              ; preds = %170
  %178 = and i64 %175, 36028797018963966
  %179 = shl i64 %178, 10
  %180 = insertelement <2 x float> poison, float %171, i64 0
  %181 = shufflevector <2 x float> %180, <2 x float> poison, <2 x i32> zeroinitializer
  br label %182

182:                                              ; preds = %182, %177
  %183 = phi i64 [ 0, %177 ], [ %208, %182 ]
  %184 = shl i64 %183, 10
  %185 = add i64 %184, %39
  %186 = add i64 %185, 1024
  %187 = getelementptr inbounds %struct.__nv_bfloat16, ptr addrspace(1) %37, i64 %185
  %188 = getelementptr inbounds %struct.__nv_bfloat16, ptr addrspace(1) %37, i64 %186
  %189 = load bfloat, ptr addrspace(1) %187, align 2, !tbaa.struct !24, !alias.scope !237, !noalias !248
  %190 = load bfloat, ptr addrspace(1) %188, align 2, !tbaa.struct !24, !alias.scope !237, !noalias !248
  %191 = insertelement <2 x bfloat> poison, bfloat %189, i64 0
  %192 = insertelement <2 x bfloat> %191, bfloat %190, i64 1
  %193 = fpext <2 x bfloat> %192 to <2 x float>
  %194 = getelementptr inbounds %struct.__half, ptr addrspace(1) %12, i64 %185
  %195 = getelementptr inbounds %struct.__half, ptr addrspace(1) %12, i64 %186
  %196 = load half, ptr addrspace(1) %194, align 2, !tbaa.struct !24, !alias.scope !243, !noalias !250, !iluvatar.noclobber !18
  %197 = load half, ptr addrspace(1) %195, align 2, !tbaa.struct !24, !alias.scope !243, !noalias !250, !iluvatar.noclobber !18
  %198 = insertelement <2 x half> poison, half %196, i64 0
  %199 = insertelement <2 x half> %198, half %197, i64 1
  %200 = fpext <2 x half> %199 to <2 x float>
  %201 = fmul contract <2 x float> %193, %200
  %202 = fmul contract <2 x float> %181, %201
  %203 = fptrunc <2 x float> %202 to <2 x bfloat>
  %204 = getelementptr inbounds %struct.__nv_bfloat16, ptr addrspace(1) %25, i64 %185
  %205 = getelementptr inbounds %struct.__nv_bfloat16, ptr addrspace(1) %25, i64 %186
  %206 = extractelement <2 x bfloat> %203, i64 0
  store bfloat %206, ptr addrspace(1) %204, align 2, !tbaa !25, !alias.scope !234, !noalias !251
  %207 = extractelement <2 x bfloat> %203, i64 1
  store bfloat %207, ptr addrspace(1) %205, align 2, !tbaa !25, !alias.scope !234, !noalias !251
  %208 = add nuw i64 %183, 2
  %209 = icmp eq i64 %208, %178
  br i1 %209, label %210, label %182, !llvm.loop !252

210:                                              ; preds = %182
  %211 = add i64 %179, %39
  %212 = icmp eq i64 %175, %178
  br i1 %212, label %.loopexit, label %.preheader4

.preheader4:                                      ; preds = %210, %170
  %.ph = phi i64 [ %211, %210 ], [ %39, %170 ]
  br label %213

213:                                              ; preds = %.preheader4, %213
  %214 = phi i64 [ %225, %213 ], [ %.ph, %.preheader4 ]
  %215 = getelementptr inbounds %struct.__nv_bfloat16, ptr addrspace(1) %37, i64 %214
  %216 = load bfloat, ptr addrspace(1) %215, align 2, !tbaa.struct !24, !alias.scope !237, !noalias !248
  %217 = fpext bfloat %216 to float
  %218 = getelementptr inbounds %struct.__half, ptr addrspace(1) %12, i64 %214
  %219 = load half, ptr addrspace(1) %218, align 2, !tbaa.struct !24, !alias.scope !243, !noalias !250, !iluvatar.noclobber !18
  %220 = fpext half %219 to float
  %221 = fmul contract float %217, %220
  %222 = fmul contract float %171, %221
  %223 = fptrunc float %222 to bfloat
  %224 = getelementptr inbounds %struct.__nv_bfloat16, ptr addrspace(1) %25, i64 %214
  store bfloat %223, ptr addrspace(1) %224, align 2, !tbaa !25, !alias.scope !234, !noalias !251
  %225 = add i64 %214, 1024
  %226 = icmp ult i64 %225, %14
  br i1 %226, label %213, label %.loopexit, !llvm.loop !253

.loopexit:                                        ; preds = %213, %210, %169
  ret void
}

; Function Attrs: convergent mustprogress norecurse nounwind
define dso_local iluvatar_kernel void @_Z17add_rmsnormKernelILj1024Ef13__nv_bfloat16fEvPT1_S2_llllPKS1_llS4_llPKT2_mmf(ptr addrspace(1) noalias nocapture noundef writeonly %0, ptr addrspace(1) noalias nocapture noundef %1, i64 noundef %2, i64 noundef %3, i64 noundef %4, i64 noundef %5, ptr addrspace(1) noalias nocapture noundef readonly %6, i64 noundef %7, i64 noundef %8, ptr addrspace(1) noalias nocapture noundef readonly %9, i64 noundef %10, i64 noundef %11, ptr addrspace(1) noalias nocapture noundef readonly %12, i64 noundef %13, i64 noundef %14, float noundef %15) local_unnamed_addr #0 comdat {
  tail call void @llvm.experimental.noalias.scope.decl(metadata !254)
  tail call void @llvm.experimental.noalias.scope.decl(metadata !257)
  tail call void @llvm.experimental.noalias.scope.decl(metadata !259)
  tail call void @llvm.experimental.noalias.scope.decl(metadata !261)
  tail call void @llvm.experimental.noalias.scope.decl(metadata !263)
  %17 = tail call noundef i32 @llvm.nvvm.read.ptx.sreg.ctaid.x(), !range !15
  %18 = zext nneg i32 %17 to i64
  %19 = udiv i64 %18, %13
  %20 = mul i64 %19, %13
  %21 = sub i64 %18, %20
  %22 = mul i64 %19, %2
  %23 = getelementptr inbounds %struct.__nv_bfloat16, ptr addrspace(1) %0, i64 %22
  %24 = mul i64 %21, %3
  %25 = getelementptr inbounds %struct.__nv_bfloat16, ptr addrspace(1) %23, i64 %24
  %26 = mul i64 %19, %7
  %27 = getelementptr inbounds %struct.__nv_bfloat16, ptr addrspace(1) %6, i64 %26
  %28 = mul i64 %21, %8
  %29 = getelementptr inbounds %struct.__nv_bfloat16, ptr addrspace(1) %27, i64 %28
  %30 = mul i64 %19, %10
  %31 = getelementptr inbounds %struct.__nv_bfloat16, ptr addrspace(1) %9, i64 %30
  %32 = mul i64 %21, %11
  %33 = getelementptr inbounds %struct.__nv_bfloat16, ptr addrspace(1) %31, i64 %32
  %34 = mul i64 %19, %4
  %35 = getelementptr inbounds %struct.__nv_bfloat16, ptr addrspace(1) %1, i64 %34
  %36 = mul i64 %21, %5
  %37 = getelementptr inbounds %struct.__nv_bfloat16, ptr addrspace(1) %35, i64 %36
  %38 = tail call noundef i32 @llvm.nvvm.read.ptx.sreg.tid.x(), !range !16
  %39 = zext nneg i32 %38 to i64
  %40 = icmp ult i64 %39, %14
  br i1 %40, label %.preheader, label %.loopexit2

.loopexit2:                                       ; preds = %.preheader, %16
  %41 = phi float [ 0.000000e+00, %16 ], [ %130, %.preheader ]
  %42 = tail call noundef i32 @llvm.bi.lane.id(), !range !17, !noundef !18
  %43 = icmp ne i32 %42, 63
  %44 = zext i1 %43 to i32
  %45 = add nuw nsw i32 %42, %44
  %46 = tail call contract float @llvm.bi.slb.shfl.idx.b32.f32(float %41, i32 %45)
  %47 = select i1 %43, float %41, float -0.000000e+00
  %48 = fadd contract float %46, %47
  %49 = add nuw nsw i32 %42, 2
  %50 = icmp ugt i32 %42, 61
  %51 = select i1 %50, i32 %42, i32 %49
  %52 = tail call contract float @llvm.bi.slb.shfl.idx.b32.f32(float %48, i32 %51)
  %53 = select i1 %50, float -0.000000e+00, float %48
  %54 = fadd contract float %52, %53
  %55 = add nuw nsw i32 %42, 4
  %56 = icmp ugt i32 %42, 59
  %57 = select i1 %56, i32 %42, i32 %55
  %58 = tail call contract float @llvm.bi.slb.shfl.idx.b32.f32(float %54, i32 %57)
  %59 = select i1 %56, float -0.000000e+00, float %54
  %60 = fadd contract float %58, %59
  %61 = add nuw nsw i32 %42, 8
  %62 = icmp ugt i32 %42, 55
  %63 = select i1 %62, i32 %42, i32 %61
  %64 = tail call contract float @llvm.bi.slb.shfl.idx.b32.f32(float %60, i32 %63)
  %65 = select i1 %62, float -0.000000e+00, float %60
  %66 = fadd contract float %64, %65
  %67 = add nuw nsw i32 %42, 16
  %68 = icmp ugt i32 %42, 47
  %69 = select i1 %68, i32 %42, i32 %67
  %70 = tail call contract float @llvm.bi.slb.shfl.idx.b32.f32(float %66, i32 %69)
  %71 = select i1 %68, float -0.000000e+00, float %66
  %72 = fadd contract float %70, %71
  %73 = add nuw nsw i32 %42, 32
  %74 = icmp ugt i32 %42, 31
  %75 = select i1 %74, i32 %42, i32 %73
  %76 = tail call contract float @llvm.bi.slb.shfl.idx.b32.f32(float %72, i32 %75)
  %77 = select i1 %74, float -0.000000e+00, float %72
  %78 = fadd contract float %76, %77
  %79 = icmp eq i32 %42, 0
  br i1 %79, label %80, label %83

80:                                               ; preds = %.loopexit2
  %81 = lshr i32 %38, 6
  %82 = getelementptr inbounds %"struct.cub::BlockReduceWarpReductions<float, 1024, 1, 1, 300>::_TempStorage", ptr addrspace(3) @_ZZ16add_rmsnormBlockILj1024Ef13__nv_bfloat16fEvPT1_S2_llllPKS1_llS4_llPKT2_mmfE12temp_storage, i32 0, i32 1, i32 %81
  store float %78, ptr addrspace(3) %82, align 4, !tbaa !19, !noalias !265
  br label %83

83:                                               ; preds = %80, %.loopexit2
  tail call void @llvm.bi.sl.barrier(), !noalias !265
  %84 = icmp eq i32 %38, 0
  br i1 %84, label %85, label %116

85:                                               ; preds = %83
  %86 = load float, ptr addrspace(3) getelementptr inbounds (%"struct.cub::BlockReduce<float, 1024>::TempStorage", ptr addrspace(3) @_ZZ16add_rmsnormBlockILj1024Ef13__nv_bfloat16fEvPT1_S2_llllPKS1_llS4_llPKT2_mmfE12temp_storage, i32 0, i32 0, i32 0, i32 5), align 4, !tbaa !19, !noalias !265
  %87 = fadd contract float %78, %86
  %88 = load float, ptr addrspace(3) getelementptr inbounds (%"struct.cub::BlockReduce<float, 1024>::TempStorage", ptr addrspace(3) @_ZZ16add_rmsnormBlockILj1024Ef13__nv_bfloat16fEvPT1_S2_llllPKS1_llS4_llPKT2_mmfE12temp_storage, i32 0, i32 0, i32 0, i32 6), align 4, !tbaa !19, !noalias !265
  %89 = fadd contract float %88, %87
  %90 = load float, ptr addrspace(3) getelementptr inbounds (%"struct.cub::BlockReduce<float, 1024>::TempStorage", ptr addrspace(3) @_ZZ16add_rmsnormBlockILj1024Ef13__nv_bfloat16fEvPT1_S2_llllPKS1_llS4_llPKT2_mmfE12temp_storage, i32 0, i32 0, i32 0, i32 7), align 4, !tbaa !19, !noalias !265
  %91 = fadd contract float %90, %89
  %92 = load float, ptr addrspace(3) getelementptr inbounds (%"struct.cub::BlockReduce<float, 1024>::TempStorage", ptr addrspace(3) @_ZZ16add_rmsnormBlockILj1024Ef13__nv_bfloat16fEvPT1_S2_llllPKS1_llS4_llPKT2_mmfE12temp_storage, i32 0, i32 0, i32 0, i32 8), align 4, !tbaa !19, !noalias !265
  %93 = fadd contract float %92, %91
  %94 = load float, ptr addrspace(3) getelementptr inbounds (%"struct.cub::BlockReduce<float, 1024>::TempStorage", ptr addrspace(3) @_ZZ16add_rmsnormBlockILj1024Ef13__nv_bfloat16fEvPT1_S2_llllPKS1_llS4_llPKT2_mmfE12temp_storage, i32 0, i32 0, i32 0, i32 9), align 4, !tbaa !19, !noalias !265
  %95 = fadd contract float %94, %93
  %96 = load float, ptr addrspace(3) getelementptr inbounds (%"struct.cub::BlockReduce<float, 1024>::TempStorage", ptr addrspace(3) @_ZZ16add_rmsnormBlockILj1024Ef13__nv_bfloat16fEvPT1_S2_llllPKS1_llS4_llPKT2_mmfE12temp_storage, i32 0, i32 0, i32 0, i32 10), align 4, !tbaa !19, !noalias !265
  %97 = fadd contract float %96, %95
  %98 = load float, ptr addrspace(3) getelementptr inbounds (%"struct.cub::BlockReduce<float, 1024>::TempStorage", ptr addrspace(3) @_ZZ16add_rmsnormBlockILj1024Ef13__nv_bfloat16fEvPT1_S2_llllPKS1_llS4_llPKT2_mmfE12temp_storage, i32 0, i32 0, i32 0, i32 11), align 4, !tbaa !19, !noalias !265
  %99 = fadd contract float %98, %97
  %100 = load float, ptr addrspace(3) getelementptr inbounds (%"struct.cub::BlockReduce<float, 1024>::TempStorage", ptr addrspace(3) @_ZZ16add_rmsnormBlockILj1024Ef13__nv_bfloat16fEvPT1_S2_llllPKS1_llS4_llPKT2_mmfE12temp_storage, i32 0, i32 0, i32 0, i32 12), align 4, !tbaa !19, !noalias !265
  %101 = fadd contract float %100, %99
  %102 = load float, ptr addrspace(3) getelementptr inbounds (%"struct.cub::BlockReduce<float, 1024>::TempStorage", ptr addrspace(3) @_ZZ16add_rmsnormBlockILj1024Ef13__nv_bfloat16fEvPT1_S2_llllPKS1_llS4_llPKT2_mmfE12temp_storage, i32 0, i32 0, i32 0, i32 13), align 4, !tbaa !19, !noalias !265
  %103 = fadd contract float %102, %101
  %104 = load float, ptr addrspace(3) getelementptr inbounds (%"struct.cub::BlockReduce<float, 1024>::TempStorage", ptr addrspace(3) @_ZZ16add_rmsnormBlockILj1024Ef13__nv_bfloat16fEvPT1_S2_llllPKS1_llS4_llPKT2_mmfE12temp_storage, i32 0, i32 0, i32 0, i32 14), align 4, !tbaa !19, !noalias !265
  %105 = fadd contract float %104, %103
  %106 = load float, ptr addrspace(3) getelementptr inbounds (%"struct.cub::BlockReduce<float, 1024>::TempStorage", ptr addrspace(3) @_ZZ16add_rmsnormBlockILj1024Ef13__nv_bfloat16fEvPT1_S2_llllPKS1_llS4_llPKT2_mmfE12temp_storage, i32 0, i32 0, i32 0, i32 15), align 4, !tbaa !19, !noalias !265
  %107 = fadd contract float %106, %105
  %108 = load float, ptr addrspace(3) getelementptr inbounds (%"struct.cub::BlockReduce<float, 1024>::TempStorage", ptr addrspace(3) @_ZZ16add_rmsnormBlockILj1024Ef13__nv_bfloat16fEvPT1_S2_llllPKS1_llS4_llPKT2_mmfE12temp_storage, i32 0, i32 0, i32 0, i32 16), align 4, !tbaa !19, !noalias !265
  %109 = fadd contract float %108, %107
  %110 = load float, ptr addrspace(3) getelementptr inbounds (%"struct.cub::BlockReduce<float, 1024>::TempStorage", ptr addrspace(3) @_ZZ16add_rmsnormBlockILj1024Ef13__nv_bfloat16fEvPT1_S2_llllPKS1_llS4_llPKT2_mmfE12temp_storage, i32 0, i32 0, i32 0, i32 17), align 4, !tbaa !19, !noalias !265
  %111 = fadd contract float %110, %109
  %112 = load float, ptr addrspace(3) getelementptr inbounds (%"struct.cub::BlockReduce<float, 1024>::TempStorage", ptr addrspace(3) @_ZZ16add_rmsnormBlockILj1024Ef13__nv_bfloat16fEvPT1_S2_llllPKS1_llS4_llPKT2_mmfE12temp_storage, i32 0, i32 0, i32 0, i32 18), align 4, !tbaa !19, !noalias !265
  %113 = fadd contract float %112, %111
  %114 = load float, ptr addrspace(3) getelementptr inbounds (%"struct.cub::BlockReduce<float, 1024>::TempStorage", ptr addrspace(3) @_ZZ16add_rmsnormBlockILj1024Ef13__nv_bfloat16fEvPT1_S2_llllPKS1_llS4_llPKT2_mmfE12temp_storage, i32 0, i32 0, i32 0, i32 19), align 4, !tbaa !19, !noalias !265
  %115 = fadd contract float %114, %113
  br label %116

116:                                              ; preds = %85, %83
  %117 = phi float [ %115, %85 ], [ %78, %83 ]
  br i1 %84, label %133, label %169

.preheader:                                       ; preds = %16, %.preheader
  %118 = phi float [ %130, %.preheader ], [ 0.000000e+00, %16 ]
  %119 = phi i64 [ %131, %.preheader ], [ %39, %16 ]
  %120 = getelementptr inbounds %struct.__nv_bfloat16, ptr addrspace(1) %29, i64 %119
  %121 = load bfloat, ptr addrspace(1) %120, align 2, !tbaa.struct !24, !alias.scope !259, !noalias !266, !iluvatar.noclobber !18
  %122 = fpext bfloat %121 to float
  %123 = getelementptr inbounds %struct.__nv_bfloat16, ptr addrspace(1) %33, i64 %119
  %124 = load bfloat, ptr addrspace(1) %123, align 2, !tbaa.struct !24, !alias.scope !261, !noalias !267, !iluvatar.noclobber !18
  %125 = fpext bfloat %124 to float
  %126 = fadd contract float %122, %125
  %127 = fptrunc float %126 to bfloat
  %128 = getelementptr inbounds %struct.__nv_bfloat16, ptr addrspace(1) %37, i64 %119
  store bfloat %127, ptr addrspace(1) %128, align 2, !tbaa !25, !alias.scope !257, !noalias !268
  %129 = fmul contract float %126, %126
  %130 = fadd contract float %118, %129
  %131 = add i64 %119, 1024
  %132 = icmp ult i64 %131, %14
  br i1 %132, label %.preheader, label %.loopexit2, !llvm.loop !269

133:                                              ; preds = %116
  %134 = uitofp i64 %14 to float
  %135 = fdiv contract float %117, %134
  %136 = fadd contract float %135, %15
  %137 = tail call float @llvm.fabs.f32(float %136)
  %138 = fcmp contract olt float %137, 0x3810000000000000
  %139 = fmul contract float %136, 0x4170000000000000
  %140 = select i1 %138, float %139, float %136
  %141 = bitcast float %140 to i32
  %142 = add i32 %141, -8388608
  %143 = icmp ult i32 %142, 2130706432
  br i1 %143, label %144, label %165

144:                                              ; preds = %133
  %145 = and i32 %141, 16777215
  %146 = or disjoint i32 %145, 1056964608
  %147 = bitcast i32 %146 to float
  %148 = sub nsw i32 %146, %141
  %149 = add nsw i32 %148, 201326592
  %150 = select i1 %138, i32 %149, i32 %148
  %151 = tail call contract noundef float @llvm.nvvm.rsqrt.approx.ftz.f(float noundef %147) #7
  %152 = fmul contract float %151, %151
  %153 = fneg contract float %152
  %154 = tail call float @llvm.fma.f32(float %151, float %151, float %153)
  %155 = fneg contract float %147
  %156 = tail call float @llvm.fma.f32(float %152, float %155, float 1.000000e+00)
  %157 = tail call float @llvm.fma.f32(float %154, float %155, float %156)
  %158 = tail call float @llvm.fma.f32(float %157, float 3.750000e-01, float 5.000000e-01)
  %159 = fmul contract float %151, %157
  %160 = tail call float @llvm.fma.f32(float %158, float %159, float %151)
  %161 = ashr i32 %150, 1
  %162 = bitcast float %160 to i32
  %163 = add i32 %161, %162
  %164 = bitcast i32 %163 to float
  br label %167

165:                                              ; preds = %133
  %166 = tail call contract noundef float @llvm.nvvm.rsqrt.approx.ftz.f(float noundef %140) #7
  br label %167

167:                                              ; preds = %165, %144
  %168 = phi float [ %164, %144 ], [ %166, %165 ]
  store float %168, ptr addrspace(3) @_ZZ16add_rmsnormBlockILj1024Ef13__nv_bfloat16fEvPT1_S2_llllPKS1_llS4_llPKT2_mmfE3rms, align 4, !tbaa !19, !noalias !265
  br label %169

169:                                              ; preds = %167, %116
  tail call void @llvm.bi.sl.barrier(), !noalias !265
  br i1 %40, label %170, label %.loopexit

170:                                              ; preds = %169
  %171 = load float, ptr addrspace(3) @_ZZ16add_rmsnormBlockILj1024Ef13__nv_bfloat16fEvPT1_S2_llllPKS1_llS4_llPKT2_mmfE3rms, align 4, !tbaa !19, !noalias !265
  br label %172

172:                                              ; preds = %172, %170
  %173 = phi i64 [ %39, %170 ], [ %183, %172 ]
  %174 = getelementptr inbounds %struct.__nv_bfloat16, ptr addrspace(1) %37, i64 %173
  %175 = load bfloat, ptr addrspace(1) %174, align 2, !tbaa.struct !24, !alias.scope !257, !noalias !268
  %176 = fpext bfloat %175 to float
  %177 = getelementptr inbounds float, ptr addrspace(1) %12, i64 %173
  %178 = load float, ptr addrspace(1) %177, align 4, !tbaa !19, !alias.scope !263, !noalias !270, !iluvatar.noclobber !18
  %179 = fmul contract float %178, %176
  %180 = fmul contract float %171, %179
  %181 = fptrunc float %180 to bfloat
  %182 = getelementptr inbounds %struct.__nv_bfloat16, ptr addrspace(1) %25, i64 %173
  store bfloat %181, ptr addrspace(1) %182, align 2, !tbaa !25, !alias.scope !254, !noalias !271
  %183 = add i64 %173, 1024
  %184 = icmp ult i64 %183, %14
  br i1 %184, label %172, label %.loopexit, !llvm.loop !272

.loopexit:                                        ; preds = %172, %169
  ret void
}

; Function Attrs: convergent mustprogress norecurse nounwind
define dso_local iluvatar_kernel void @_Z17add_rmsnormKernelILj1024EfffEvPT1_S1_llllPKS0_llS3_llPKT2_mmf(ptr addrspace(1) noalias nocapture noundef writeonly %0, ptr addrspace(1) noalias nocapture noundef %1, i64 noundef %2, i64 noundef %3, i64 noundef %4, i64 noundef %5, ptr addrspace(1) noalias nocapture noundef readonly %6, i64 noundef %7, i64 noundef %8, ptr addrspace(1) noalias nocapture noundef readonly %9, i64 noundef %10, i64 noundef %11, ptr addrspace(1) noalias nocapture noundef readonly %12, i64 noundef %13, i64 noundef %14, float noundef %15) local_unnamed_addr #0 comdat {
  tail call void @llvm.experimental.noalias.scope.decl(metadata !273)
  tail call void @llvm.experimental.noalias.scope.decl(metadata !276)
  tail call void @llvm.experimental.noalias.scope.decl(metadata !278)
  tail call void @llvm.experimental.noalias.scope.decl(metadata !280)
  tail call void @llvm.experimental.noalias.scope.decl(metadata !282)
  %17 = tail call noundef i32 @llvm.nvvm.read.ptx.sreg.ctaid.x(), !range !15
  %18 = zext nneg i32 %17 to i64
  %19 = udiv i64 %18, %13
  %20 = mul i64 %19, %13
  %21 = sub i64 %18, %20
  %22 = mul i64 %19, %2
  %23 = getelementptr inbounds float, ptr addrspace(1) %0, i64 %22
  %24 = mul i64 %21, %3
  %25 = getelementptr inbounds float, ptr addrspace(1) %23, i64 %24
  %26 = mul i64 %19, %7
  %27 = getelementptr inbounds float, ptr addrspace(1) %6, i64 %26
  %28 = mul i64 %21, %8
  %29 = getelementptr inbounds float, ptr addrspace(1) %27, i64 %28
  %30 = mul i64 %19, %10
  %31 = getelementptr inbounds float, ptr addrspace(1) %9, i64 %30
  %32 = mul i64 %21, %11
  %33 = getelementptr inbounds float, ptr addrspace(1) %31, i64 %32
  %34 = mul i64 %19, %4
  %35 = getelementptr inbounds float, ptr addrspace(1) %1, i64 %34
  %36 = mul i64 %21, %5
  %37 = getelementptr inbounds float, ptr addrspace(1) %35, i64 %36
  %38 = tail call noundef i32 @llvm.nvvm.read.ptx.sreg.tid.x(), !range !16
  %39 = zext nneg i32 %38 to i64
  %40 = icmp ult i64 %39, %14
  br i1 %40, label %.preheader, label %.loopexit2

.loopexit2:                                       ; preds = %.preheader, %16
  %41 = phi float [ 0.000000e+00, %16 ], [ %127, %.preheader ]
  %42 = tail call noundef i32 @llvm.bi.lane.id(), !range !17, !noundef !18
  %43 = icmp ne i32 %42, 63
  %44 = zext i1 %43 to i32
  %45 = add nuw nsw i32 %42, %44
  %46 = tail call contract float @llvm.bi.slb.shfl.idx.b32.f32(float %41, i32 %45)
  %47 = select i1 %43, float %41, float -0.000000e+00
  %48 = fadd contract float %46, %47
  %49 = add nuw nsw i32 %42, 2
  %50 = icmp ugt i32 %42, 61
  %51 = select i1 %50, i32 %42, i32 %49
  %52 = tail call contract float @llvm.bi.slb.shfl.idx.b32.f32(float %48, i32 %51)
  %53 = select i1 %50, float -0.000000e+00, float %48
  %54 = fadd contract float %52, %53
  %55 = add nuw nsw i32 %42, 4
  %56 = icmp ugt i32 %42, 59
  %57 = select i1 %56, i32 %42, i32 %55
  %58 = tail call contract float @llvm.bi.slb.shfl.idx.b32.f32(float %54, i32 %57)
  %59 = select i1 %56, float -0.000000e+00, float %54
  %60 = fadd contract float %58, %59
  %61 = add nuw nsw i32 %42, 8
  %62 = icmp ugt i32 %42, 55
  %63 = select i1 %62, i32 %42, i32 %61
  %64 = tail call contract float @llvm.bi.slb.shfl.idx.b32.f32(float %60, i32 %63)
  %65 = select i1 %62, float -0.000000e+00, float %60
  %66 = fadd contract float %64, %65
  %67 = add nuw nsw i32 %42, 16
  %68 = icmp ugt i32 %42, 47
  %69 = select i1 %68, i32 %42, i32 %67
  %70 = tail call contract float @llvm.bi.slb.shfl.idx.b32.f32(float %66, i32 %69)
  %71 = select i1 %68, float -0.000000e+00, float %66
  %72 = fadd contract float %70, %71
  %73 = add nuw nsw i32 %42, 32
  %74 = icmp ugt i32 %42, 31
  %75 = select i1 %74, i32 %42, i32 %73
  %76 = tail call contract float @llvm.bi.slb.shfl.idx.b32.f32(float %72, i32 %75)
  %77 = select i1 %74, float -0.000000e+00, float %72
  %78 = fadd contract float %76, %77
  %79 = icmp eq i32 %42, 0
  br i1 %79, label %80, label %83

80:                                               ; preds = %.loopexit2
  %81 = lshr i32 %38, 6
  %82 = getelementptr inbounds %"struct.cub::BlockReduceWarpReductions<float, 1024, 1, 1, 300>::_TempStorage", ptr addrspace(3) @_ZZ16add_rmsnormBlockILj1024EfffEvPT1_S1_llllPKS0_llS3_llPKT2_mmfE12temp_storage, i32 0, i32 1, i32 %81
  store float %78, ptr addrspace(3) %82, align 4, !tbaa !19, !noalias !284
  br label %83

83:                                               ; preds = %80, %.loopexit2
  tail call void @llvm.bi.sl.barrier(), !noalias !284
  %84 = icmp eq i32 %38, 0
  br i1 %84, label %85, label %116

85:                                               ; preds = %83
  %86 = load float, ptr addrspace(3) getelementptr inbounds (%"struct.cub::BlockReduce<float, 1024>::TempStorage", ptr addrspace(3) @_ZZ16add_rmsnormBlockILj1024EfffEvPT1_S1_llllPKS0_llS3_llPKT2_mmfE12temp_storage, i32 0, i32 0, i32 0, i32 5), align 4, !tbaa !19, !noalias !284
  %87 = fadd contract float %78, %86
  %88 = load float, ptr addrspace(3) getelementptr inbounds (%"struct.cub::BlockReduce<float, 1024>::TempStorage", ptr addrspace(3) @_ZZ16add_rmsnormBlockILj1024EfffEvPT1_S1_llllPKS0_llS3_llPKT2_mmfE12temp_storage, i32 0, i32 0, i32 0, i32 6), align 4, !tbaa !19, !noalias !284
  %89 = fadd contract float %88, %87
  %90 = load float, ptr addrspace(3) getelementptr inbounds (%"struct.cub::BlockReduce<float, 1024>::TempStorage", ptr addrspace(3) @_ZZ16add_rmsnormBlockILj1024EfffEvPT1_S1_llllPKS0_llS3_llPKT2_mmfE12temp_storage, i32 0, i32 0, i32 0, i32 7), align 4, !tbaa !19, !noalias !284
  %91 = fadd contract float %90, %89
  %92 = load float, ptr addrspace(3) getelementptr inbounds (%"struct.cub::BlockReduce<float, 1024>::TempStorage", ptr addrspace(3) @_ZZ16add_rmsnormBlockILj1024EfffEvPT1_S1_llllPKS0_llS3_llPKT2_mmfE12temp_storage, i32 0, i32 0, i32 0, i32 8), align 4, !tbaa !19, !noalias !284
  %93 = fadd contract float %92, %91
  %94 = load float, ptr addrspace(3) getelementptr inbounds (%"struct.cub::BlockReduce<float, 1024>::TempStorage", ptr addrspace(3) @_ZZ16add_rmsnormBlockILj1024EfffEvPT1_S1_llllPKS0_llS3_llPKT2_mmfE12temp_storage, i32 0, i32 0, i32 0, i32 9), align 4, !tbaa !19, !noalias !284
  %95 = fadd contract float %94, %93
  %96 = load float, ptr addrspace(3) getelementptr inbounds (%"struct.cub::BlockReduce<float, 1024>::TempStorage", ptr addrspace(3) @_ZZ16add_rmsnormBlockILj1024EfffEvPT1_S1_llllPKS0_llS3_llPKT2_mmfE12temp_storage, i32 0, i32 0, i32 0, i32 10), align 4, !tbaa !19, !noalias !284
  %97 = fadd contract float %96, %95
  %98 = load float, ptr addrspace(3) getelementptr inbounds (%"struct.cub::BlockReduce<float, 1024>::TempStorage", ptr addrspace(3) @_ZZ16add_rmsnormBlockILj1024EfffEvPT1_S1_llllPKS0_llS3_llPKT2_mmfE12temp_storage, i32 0, i32 0, i32 0, i32 11), align 4, !tbaa !19, !noalias !284
  %99 = fadd contract float %98, %97
  %100 = load float, ptr addrspace(3) getelementptr inbounds (%"struct.cub::BlockReduce<float, 1024>::TempStorage", ptr addrspace(3) @_ZZ16add_rmsnormBlockILj1024EfffEvPT1_S1_llllPKS0_llS3_llPKT2_mmfE12temp_storage, i32 0, i32 0, i32 0, i32 12), align 4, !tbaa !19, !noalias !284
  %101 = fadd contract float %100, %99
  %102 = load float, ptr addrspace(3) getelementptr inbounds (%"struct.cub::BlockReduce<float, 1024>::TempStorage", ptr addrspace(3) @_ZZ16add_rmsnormBlockILj1024EfffEvPT1_S1_llllPKS0_llS3_llPKT2_mmfE12temp_storage, i32 0, i32 0, i32 0, i32 13), align 4, !tbaa !19, !noalias !284
  %103 = fadd contract float %102, %101
  %104 = load float, ptr addrspace(3) getelementptr inbounds (%"struct.cub::BlockReduce<float, 1024>::TempStorage", ptr addrspace(3) @_ZZ16add_rmsnormBlockILj1024EfffEvPT1_S1_llllPKS0_llS3_llPKT2_mmfE12temp_storage, i32 0, i32 0, i32 0, i32 14), align 4, !tbaa !19, !noalias !284
  %105 = fadd contract float %104, %103
  %106 = load float, ptr addrspace(3) getelementptr inbounds (%"struct.cub::BlockReduce<float, 1024>::TempStorage", ptr addrspace(3) @_ZZ16add_rmsnormBlockILj1024EfffEvPT1_S1_llllPKS0_llS3_llPKT2_mmfE12temp_storage, i32 0, i32 0, i32 0, i32 15), align 4, !tbaa !19, !noalias !284
  %107 = fadd contract float %106, %105
  %108 = load float, ptr addrspace(3) getelementptr inbounds (%"struct.cub::BlockReduce<float, 1024>::TempStorage", ptr addrspace(3) @_ZZ16add_rmsnormBlockILj1024EfffEvPT1_S1_llllPKS0_llS3_llPKT2_mmfE12temp_storage, i32 0, i32 0, i32 0, i32 16), align 4, !tbaa !19, !noalias !284
  %109 = fadd contract float %108, %107
  %110 = load float, ptr addrspace(3) getelementptr inbounds (%"struct.cub::BlockReduce<float, 1024>::TempStorage", ptr addrspace(3) @_ZZ16add_rmsnormBlockILj1024EfffEvPT1_S1_llllPKS0_llS3_llPKT2_mmfE12temp_storage, i32 0, i32 0, i32 0, i32 17), align 4, !tbaa !19, !noalias !284
  %111 = fadd contract float %110, %109
  %112 = load float, ptr addrspace(3) getelementptr inbounds (%"struct.cub::BlockReduce<float, 1024>::TempStorage", ptr addrspace(3) @_ZZ16add_rmsnormBlockILj1024EfffEvPT1_S1_llllPKS0_llS3_llPKT2_mmfE12temp_storage, i32 0, i32 0, i32 0, i32 18), align 4, !tbaa !19, !noalias !284
  %113 = fadd contract float %112, %111
  %114 = load float, ptr addrspace(3) getelementptr inbounds (%"struct.cub::BlockReduce<float, 1024>::TempStorage", ptr addrspace(3) @_ZZ16add_rmsnormBlockILj1024EfffEvPT1_S1_llllPKS0_llS3_llPKT2_mmfE12temp_storage, i32 0, i32 0, i32 0, i32 19), align 4, !tbaa !19, !noalias !284
  %115 = fadd contract float %114, %113
  br label %116

116:                                              ; preds = %85, %83
  %117 = phi float [ %115, %85 ], [ %78, %83 ]
  br i1 %84, label %130, label %166

.preheader:                                       ; preds = %16, %.preheader
  %118 = phi float [ %127, %.preheader ], [ 0.000000e+00, %16 ]
  %119 = phi i64 [ %128, %.preheader ], [ %39, %16 ]
  %120 = getelementptr inbounds float, ptr addrspace(1) %29, i64 %119
  %121 = load float, ptr addrspace(1) %120, align 4, !tbaa !19, !alias.scope !278, !noalias !285, !iluvatar.noclobber !18
  %122 = getelementptr inbounds float, ptr addrspace(1) %33, i64 %119
  %123 = load float, ptr addrspace(1) %122, align 4, !tbaa !19, !alias.scope !280, !noalias !286, !iluvatar.noclobber !18
  %124 = fadd contract float %121, %123
  %125 = getelementptr inbounds float, ptr addrspace(1) %37, i64 %119
  store float %124, ptr addrspace(1) %125, align 4, !tbaa !19, !alias.scope !276, !noalias !287
  %126 = fmul contract float %124, %124
  %127 = fadd contract float %118, %126
  %128 = add i64 %119, 1024
  %129 = icmp ult i64 %128, %14
  br i1 %129, label %.preheader, label %.loopexit2, !llvm.loop !288

130:                                              ; preds = %116
  %131 = uitofp i64 %14 to float
  %132 = fdiv contract float %117, %131
  %133 = fadd contract float %132, %15
  %134 = tail call float @llvm.fabs.f32(float %133)
  %135 = fcmp contract olt float %134, 0x3810000000000000
  %136 = fmul contract float %133, 0x4170000000000000
  %137 = select i1 %135, float %136, float %133
  %138 = bitcast float %137 to i32
  %139 = add i32 %138, -8388608
  %140 = icmp ult i32 %139, 2130706432
  br i1 %140, label %141, label %162

141:                                              ; preds = %130
  %142 = and i32 %138, 16777215
  %143 = or disjoint i32 %142, 1056964608
  %144 = bitcast i32 %143 to float
  %145 = sub nsw i32 %143, %138
  %146 = add nsw i32 %145, 201326592
  %147 = select i1 %135, i32 %146, i32 %145
  %148 = tail call contract noundef float @llvm.nvvm.rsqrt.approx.ftz.f(float noundef %144) #7
  %149 = fmul contract float %148, %148
  %150 = fneg contract float %149
  %151 = tail call float @llvm.fma.f32(float %148, float %148, float %150)
  %152 = fneg contract float %144
  %153 = tail call float @llvm.fma.f32(float %149, float %152, float 1.000000e+00)
  %154 = tail call float @llvm.fma.f32(float %151, float %152, float %153)
  %155 = tail call float @llvm.fma.f32(float %154, float 3.750000e-01, float 5.000000e-01)
  %156 = fmul contract float %148, %154
  %157 = tail call float @llvm.fma.f32(float %155, float %156, float %148)
  %158 = ashr i32 %147, 1
  %159 = bitcast float %157 to i32
  %160 = add i32 %158, %159
  %161 = bitcast i32 %160 to float
  br label %164

162:                                              ; preds = %130
  %163 = tail call contract noundef float @llvm.nvvm.rsqrt.approx.ftz.f(float noundef %137) #7
  br label %164

164:                                              ; preds = %162, %141
  %165 = phi float [ %161, %141 ], [ %163, %162 ]
  store float %165, ptr addrspace(3) @_ZZ16add_rmsnormBlockILj1024EfffEvPT1_S1_llllPKS0_llS3_llPKT2_mmfE3rms, align 4, !tbaa !19, !noalias !284
  br label %166

166:                                              ; preds = %164, %116
  tail call void @llvm.bi.sl.barrier(), !noalias !284
  br i1 %40, label %167, label %.loopexit

167:                                              ; preds = %166
  %168 = load float, ptr addrspace(3) @_ZZ16add_rmsnormBlockILj1024EfffEvPT1_S1_llllPKS0_llS3_llPKT2_mmfE3rms, align 4, !tbaa !19, !noalias !284
  br label %169

169:                                              ; preds = %169, %167
  %170 = phi i64 [ %39, %167 ], [ %178, %169 ]
  %171 = getelementptr inbounds float, ptr addrspace(1) %37, i64 %170
  %172 = load float, ptr addrspace(1) %171, align 4, !tbaa !19, !alias.scope !276, !noalias !287
  %173 = getelementptr inbounds float, ptr addrspace(1) %12, i64 %170
  %174 = load float, ptr addrspace(1) %173, align 4, !tbaa !19, !alias.scope !282, !noalias !289, !iluvatar.noclobber !18
  %175 = fmul contract float %172, %174
  %176 = fmul contract float %168, %175
  %177 = getelementptr inbounds float, ptr addrspace(1) %25, i64 %170
  store float %176, ptr addrspace(1) %177, align 4, !tbaa !19, !alias.scope !273, !noalias !290
  %178 = add i64 %170, 1024
  %179 = icmp ult i64 %178, %14
  br i1 %179, label %169, label %.loopexit, !llvm.loop !291

.loopexit:                                        ; preds = %169, %166
  ret void
}

; Function Attrs: convergent mustprogress norecurse nounwind
define dso_local iluvatar_kernel void @_Z17add_rmsnormKernelILj2048Ef6__halfS0_EvPT1_S2_llllPKS1_llS4_llPKT2_mmf(ptr addrspace(1) noalias nocapture noundef writeonly %0, ptr addrspace(1) noalias nocapture noundef %1, i64 noundef %2, i64 noundef %3, i64 noundef %4, i64 noundef %5, ptr addrspace(1) noalias nocapture noundef readonly %6, i64 noundef %7, i64 noundef %8, ptr addrspace(1) noalias nocapture noundef readonly %9, i64 noundef %10, i64 noundef %11, ptr addrspace(1) noalias nocapture noundef readonly %12, i64 noundef %13, i64 noundef %14, float noundef %15) local_unnamed_addr #0 comdat {
  tail call void @llvm.experimental.noalias.scope.decl(metadata !292)
  tail call void @llvm.experimental.noalias.scope.decl(metadata !295)
  tail call void @llvm.experimental.noalias.scope.decl(metadata !297)
  tail call void @llvm.experimental.noalias.scope.decl(metadata !299)
  tail call void @llvm.experimental.noalias.scope.decl(metadata !301)
  %17 = tail call noundef i32 @llvm.nvvm.read.ptx.sreg.ctaid.x(), !range !15
  %18 = zext nneg i32 %17 to i64
  %19 = udiv i64 %18, %13
  %20 = mul i64 %19, %13
  %21 = sub i64 %18, %20
  %22 = mul i64 %19, %2
  %23 = getelementptr inbounds %struct.__half, ptr addrspace(1) %0, i64 %22
  %24 = mul i64 %21, %3
  %25 = getelementptr inbounds %struct.__half, ptr addrspace(1) %23, i64 %24
  %26 = mul i64 %19, %7
  %27 = getelementptr inbounds %struct.__half, ptr addrspace(1) %6, i64 %26
  %28 = mul i64 %21, %8
  %29 = getelementptr inbounds %struct.__half, ptr addrspace(1) %27, i64 %28
  %30 = mul i64 %19, %10
  %31 = getelementptr inbounds %struct.__half, ptr addrspace(1) %9, i64 %30
  %32 = mul i64 %21, %11
  %33 = getelementptr inbounds %struct.__half, ptr addrspace(1) %31, i64 %32
  %34 = mul i64 %19, %4
  %35 = getelementptr inbounds %struct.__half, ptr addrspace(1) %1, i64 %34
  %36 = mul i64 %21, %5
  %37 = getelementptr inbounds %struct.__half, ptr addrspace(1) %35, i64 %36
  %38 = tail call noundef i32 @llvm.nvvm.read.ptx.sreg.tid.x(), !range !16
  %39 = zext nneg i32 %38 to i64
  %40 = icmp ult i64 %39, %14
  br i1 %40, label %.preheader, label %.loopexit3

.loopexit3:                                       ; preds = %.preheader, %16
  %41 = phi float [ 0.000000e+00, %16 ], [ %162, %.preheader ]
  %42 = tail call noundef i32 @llvm.bi.lane.id(), !range !17, !noundef !18
  %43 = icmp ne i32 %42, 63
  %44 = zext i1 %43 to i32
  %45 = add nuw nsw i32 %42, %44
  %46 = tail call contract float @llvm.bi.slb.shfl.idx.b32.f32(float %41, i32 %45)
  %47 = select i1 %43, float %41, float -0.000000e+00
  %48 = fadd contract float %46, %47
  %49 = add nuw nsw i32 %42, 2
  %50 = icmp ugt i32 %42, 61
  %51 = select i1 %50, i32 %42, i32 %49
  %52 = tail call contract float @llvm.bi.slb.shfl.idx.b32.f32(float %48, i32 %51)
  %53 = select i1 %50, float -0.000000e+00, float %48
  %54 = fadd contract float %52, %53
  %55 = add nuw nsw i32 %42, 4
  %56 = icmp ugt i32 %42, 59
  %57 = select i1 %56, i32 %42, i32 %55
  %58 = tail call contract float @llvm.bi.slb.shfl.idx.b32.f32(float %54, i32 %57)
  %59 = select i1 %56, float -0.000000e+00, float %54
  %60 = fadd contract float %58, %59
  %61 = add nuw nsw i32 %42, 8
  %62 = icmp ugt i32 %42, 55
  %63 = select i1 %62, i32 %42, i32 %61
  %64 = tail call contract float @llvm.bi.slb.shfl.idx.b32.f32(float %60, i32 %63)
  %65 = select i1 %62, float -0.000000e+00, float %60
  %66 = fadd contract float %64, %65
  %67 = add nuw nsw i32 %42, 16
  %68 = icmp ugt i32 %42, 47
  %69 = select i1 %68, i32 %42, i32 %67
  %70 = tail call contract float @llvm.bi.slb.shfl.idx.b32.f32(float %66, i32 %69)
  %71 = select i1 %68, float -0.000000e+00, float %66
  %72 = fadd contract float %70, %71
  %73 = add nuw nsw i32 %42, 32
  %74 = icmp ugt i32 %42, 31
  %75 = select i1 %74, i32 %42, i32 %73
  %76 = tail call contract float @llvm.bi.slb.shfl.idx.b32.f32(float %72, i32 %75)
  %77 = select i1 %74, float -0.000000e+00, float %72
  %78 = fadd contract float %76, %77
  %79 = icmp eq i32 %42, 0
  br i1 %79, label %80, label %83

80:                                               ; preds = %.loopexit3
  %81 = lshr i32 %38, 6
  %82 = getelementptr inbounds %"struct.cub::BlockReduceWarpReductions<float, 2048, 1, 1, 300>::_TempStorage", ptr addrspace(3) @_ZZ16add_rmsnormBlockILj2048Ef6__halfS0_EvPT1_S2_llllPKS1_llS4_llPKT2_mmfE12temp_storage, i32 0, i32 1, i32 %81
  store float %78, ptr addrspace(3) %82, align 4, !tbaa !19, !noalias !303
  br label %83

83:                                               ; preds = %80, %.loopexit3
  tail call void @llvm.bi.sl.barrier(), !noalias !303
  %84 = icmp eq i32 %38, 0
  br i1 %84, label %85, label %148

85:                                               ; preds = %83
  %86 = load float, ptr addrspace(3) getelementptr inbounds (%"struct.cub::BlockReduce<float, 2048>::TempStorage", ptr addrspace(3) @_ZZ16add_rmsnormBlockILj2048Ef6__halfS0_EvPT1_S2_llllPKS1_llS4_llPKT2_mmfE12temp_storage, i32 0, i32 0, i32 0, i32 9), align 4, !tbaa !19, !noalias !303
  %87 = fadd contract float %78, %86
  %88 = load float, ptr addrspace(3) getelementptr inbounds (%"struct.cub::BlockReduce<float, 2048>::TempStorage", ptr addrspace(3) @_ZZ16add_rmsnormBlockILj2048Ef6__halfS0_EvPT1_S2_llllPKS1_llS4_llPKT2_mmfE12temp_storage, i32 0, i32 0, i32 0, i32 10), align 4, !tbaa !19, !noalias !303
  %89 = fadd contract float %88, %87
  %90 = load float, ptr addrspace(3) getelementptr inbounds (%"struct.cub::BlockReduce<float, 2048>::TempStorage", ptr addrspace(3) @_ZZ16add_rmsnormBlockILj2048Ef6__halfS0_EvPT1_S2_llllPKS1_llS4_llPKT2_mmfE12temp_storage, i32 0, i32 0, i32 0, i32 11), align 4, !tbaa !19, !noalias !303
  %91 = fadd contract float %90, %89
  %92 = load float, ptr addrspace(3) getelementptr inbounds (%"struct.cub::BlockReduce<float, 2048>::TempStorage", ptr addrspace(3) @_ZZ16add_rmsnormBlockILj2048Ef6__halfS0_EvPT1_S2_llllPKS1_llS4_llPKT2_mmfE12temp_storage, i32 0, i32 0, i32 0, i32 12), align 4, !tbaa !19, !noalias !303
  %93 = fadd contract float %92, %91
  %94 = load float, ptr addrspace(3) getelementptr inbounds (%"struct.cub::BlockReduce<float, 2048>::TempStorage", ptr addrspace(3) @_ZZ16add_rmsnormBlockILj2048Ef6__halfS0_EvPT1_S2_llllPKS1_llS4_llPKT2_mmfE12temp_storage, i32 0, i32 0, i32 0, i32 13), align 4, !tbaa !19, !noalias !303
  %95 = fadd contract float %94, %93
  %96 = load float, ptr addrspace(3) getelementptr inbounds (%"struct.cub::BlockReduce<float, 2048>::TempStorage", ptr addrspace(3) @_ZZ16add_rmsnormBlockILj2048Ef6__halfS0_EvPT1_S2_llllPKS1_llS4_llPKT2_mmfE12temp_storage, i32 0, i32 0, i32 0, i32 14), align 4, !tbaa !19, !noalias !303
  %97 = fadd contract float %96, %95
  %98 = load float, ptr addrspace(3) getelementptr inbounds (%"struct.cub::BlockReduce<float, 2048>::TempStorage", ptr addrspace(3) @_ZZ16add_rmsnormBlockILj2048Ef6__halfS0_EvPT1_S2_llllPKS1_llS4_llPKT2_mmfE12temp_storage, i32 0, i32 0, i32 0, i32 15), align 4, !tbaa !19, !noalias !303
  %99 = fadd contract float %98, %97
  %100 = load float, ptr addrspace(3) getelementptr inbounds (%"struct.cub::BlockReduce<float, 2048>::TempStorage", ptr addrspace(3) @_ZZ16add_rmsnormBlockILj2048Ef6__halfS0_EvPT1_S2_llllPKS1_llS4_llPKT2_mmfE12temp_storage, i32 0, i32 0, i32 0, i32 16), align 4, !tbaa !19, !noalias !303
  %101 = fadd contract float %100, %99
  %102 = load float, ptr addrspace(3) getelementptr inbounds (%"struct.cub::BlockReduce<float, 2048>::TempStorage", ptr addrspace(3) @_ZZ16add_rmsnormBlockILj2048Ef6__halfS0_EvPT1_S2_llllPKS1_llS4_llPKT2_mmfE12temp_storage, i32 0, i32 0, i32 0, i32 17), align 4, !tbaa !19, !noalias !303
  %103 = fadd contract float %102, %101
  %104 = load float, ptr addrspace(3) getelementptr inbounds (%"struct.cub::BlockReduce<float, 2048>::TempStorage", ptr addrspace(3) @_ZZ16add_rmsnormBlockILj2048Ef6__halfS0_EvPT1_S2_llllPKS1_llS4_llPKT2_mmfE12temp_storage, i32 0, i32 0, i32 0, i32 18), align 4, !tbaa !19, !noalias !303
  %105 = fadd contract float %104, %103
  %106 = load float, ptr addrspace(3) getelementptr inbounds (%"struct.cub::BlockReduce<float, 2048>::TempStorage", ptr addrspace(3) @_ZZ16add_rmsnormBlockILj2048Ef6__halfS0_EvPT1_S2_llllPKS1_llS4_llPKT2_mmfE12temp_storage, i32 0, i32 0, i32 0, i32 19), align 4, !tbaa !19, !noalias !303
  %107 = fadd contract float %106, %105
  %108 = load float, ptr addrspace(3) getelementptr inbounds (%"struct.cub::BlockReduce<float, 2048>::TempStorage", ptr addrspace(3) @_ZZ16add_rmsnormBlockILj2048Ef6__halfS0_EvPT1_S2_llllPKS1_llS4_llPKT2_mmfE12temp_storage, i32 0, i32 0, i32 0, i32 20), align 4, !tbaa !19, !noalias !303
  %109 = fadd contract float %108, %107
  %110 = load float, ptr addrspace(3) getelementptr inbounds (%"struct.cub::BlockReduce<float, 2048>::TempStorage", ptr addrspace(3) @_ZZ16add_rmsnormBlockILj2048Ef6__halfS0_EvPT1_S2_llllPKS1_llS4_llPKT2_mmfE12temp_storage, i32 0, i32 0, i32 0, i32 21), align 4, !tbaa !19, !noalias !303
  %111 = fadd contract float %110, %109
  %112 = load float, ptr addrspace(3) getelementptr inbounds (%"struct.cub::BlockReduce<float, 2048>::TempStorage", ptr addrspace(3) @_ZZ16add_rmsnormBlockILj2048Ef6__halfS0_EvPT1_S2_llllPKS1_llS4_llPKT2_mmfE12temp_storage, i32 0, i32 0, i32 0, i32 22), align 4, !tbaa !19, !noalias !303
  %113 = fadd contract float %112, %111
  %114 = load float, ptr addrspace(3) getelementptr inbounds (%"struct.cub::BlockReduce<float, 2048>::TempStorage", ptr addrspace(3) @_ZZ16add_rmsnormBlockILj2048Ef6__halfS0_EvPT1_S2_llllPKS1_llS4_llPKT2_mmfE12temp_storage, i32 0, i32 0, i32 0, i32 23), align 4, !tbaa !19, !noalias !303
  %115 = fadd contract float %114, %113
  %116 = load float, ptr addrspace(3) getelementptr inbounds (%"struct.cub::BlockReduce<float, 2048>::TempStorage", ptr addrspace(3) @_ZZ16add_rmsnormBlockILj2048Ef6__halfS0_EvPT1_S2_llllPKS1_llS4_llPKT2_mmfE12temp_storage, i32 0, i32 0, i32 0, i32 24), align 4, !tbaa !19, !noalias !303
  %117 = fadd contract float %116, %115
  %118 = load float, ptr addrspace(3) getelementptr inbounds (%"struct.cub::BlockReduce<float, 2048>::TempStorage", ptr addrspace(3) @_ZZ16add_rmsnormBlockILj2048Ef6__halfS0_EvPT1_S2_llllPKS1_llS4_llPKT2_mmfE12temp_storage, i32 0, i32 0, i32 0, i32 25), align 4, !tbaa !19, !noalias !303
  %119 = fadd contract float %118, %117
  %120 = load float, ptr addrspace(3) getelementptr inbounds (%"struct.cub::BlockReduce<float, 2048>::TempStorage", ptr addrspace(3) @_ZZ16add_rmsnormBlockILj2048Ef6__halfS0_EvPT1_S2_llllPKS1_llS4_llPKT2_mmfE12temp_storage, i32 0, i32 0, i32 0, i32 26), align 4, !tbaa !19, !noalias !303
  %121 = fadd contract float %120, %119
  %122 = load float, ptr addrspace(3) getelementptr inbounds (%"struct.cub::BlockReduce<float, 2048>::TempStorage", ptr addrspace(3) @_ZZ16add_rmsnormBlockILj2048Ef6__halfS0_EvPT1_S2_llllPKS1_llS4_llPKT2_mmfE12temp_storage, i32 0, i32 0, i32 0, i32 27), align 4, !tbaa !19, !noalias !303
  %123 = fadd contract float %122, %121
  %124 = load float, ptr addrspace(3) getelementptr inbounds (%"struct.cub::BlockReduce<float, 2048>::TempStorage", ptr addrspace(3) @_ZZ16add_rmsnormBlockILj2048Ef6__halfS0_EvPT1_S2_llllPKS1_llS4_llPKT2_mmfE12temp_storage, i32 0, i32 0, i32 0, i32 28), align 4, !tbaa !19, !noalias !303
  %125 = fadd contract float %124, %123
  %126 = load float, ptr addrspace(3) getelementptr inbounds (%"struct.cub::BlockReduce<float, 2048>::TempStorage", ptr addrspace(3) @_ZZ16add_rmsnormBlockILj2048Ef6__halfS0_EvPT1_S2_llllPKS1_llS4_llPKT2_mmfE12temp_storage, i32 0, i32 0, i32 0, i32 29), align 4, !tbaa !19, !noalias !303
  %127 = fadd contract float %126, %125
  %128 = load float, ptr addrspace(3) getelementptr inbounds (%"struct.cub::BlockReduce<float, 2048>::TempStorage", ptr addrspace(3) @_ZZ16add_rmsnormBlockILj2048Ef6__halfS0_EvPT1_S2_llllPKS1_llS4_llPKT2_mmfE12temp_storage, i32 0, i32 0, i32 0, i32 30), align 4, !tbaa !19, !noalias !303
  %129 = fadd contract float %128, %127
  %130 = load float, ptr addrspace(3) getelementptr inbounds (%"struct.cub::BlockReduce<float, 2048>::TempStorage", ptr addrspace(3) @_ZZ16add_rmsnormBlockILj2048Ef6__halfS0_EvPT1_S2_llllPKS1_llS4_llPKT2_mmfE12temp_storage, i32 0, i32 0, i32 0, i32 31), align 4, !tbaa !19, !noalias !303
  %131 = fadd contract float %130, %129
  %132 = load float, ptr addrspace(3) getelementptr inbounds (%"struct.cub::BlockReduce<float, 2048>::TempStorage", ptr addrspace(3) @_ZZ16add_rmsnormBlockILj2048Ef6__halfS0_EvPT1_S2_llllPKS1_llS4_llPKT2_mmfE12temp_storage, i32 0, i32 0, i32 0, i32 32), align 4, !tbaa !19, !noalias !303
  %133 = fadd contract float %132, %131
  %134 = load float, ptr addrspace(3) getelementptr inbounds (%"struct.cub::BlockReduce<float, 2048>::TempStorage", ptr addrspace(3) @_ZZ16add_rmsnormBlockILj2048Ef6__halfS0_EvPT1_S2_llllPKS1_llS4_llPKT2_mmfE12temp_storage, i32 0, i32 0, i32 0, i32 33), align 4, !tbaa !19, !noalias !303
  %135 = fadd contract float %134, %133
  %136 = load float, ptr addrspace(3) getelementptr inbounds (%"struct.cub::BlockReduce<float, 2048>::TempStorage", ptr addrspace(3) @_ZZ16add_rmsnormBlockILj2048Ef6__halfS0_EvPT1_S2_llllPKS1_llS4_llPKT2_mmfE12temp_storage, i32 0, i32 0, i32 0, i32 34), align 4, !tbaa !19, !noalias !303
  %137 = fadd contract float %136, %135
  %138 = load float, ptr addrspace(3) getelementptr inbounds (%"struct.cub::BlockReduce<float, 2048>::TempStorage", ptr addrspace(3) @_ZZ16add_rmsnormBlockILj2048Ef6__halfS0_EvPT1_S2_llllPKS1_llS4_llPKT2_mmfE12temp_storage, i32 0, i32 0, i32 0, i32 35), align 4, !tbaa !19, !noalias !303
  %139 = fadd contract float %138, %137
  %140 = load float, ptr addrspace(3) getelementptr inbounds (%"struct.cub::BlockReduce<float, 2048>::TempStorage", ptr addrspace(3) @_ZZ16add_rmsnormBlockILj2048Ef6__halfS0_EvPT1_S2_llllPKS1_llS4_llPKT2_mmfE12temp_storage, i32 0, i32 0, i32 0, i32 36), align 4, !tbaa !19, !noalias !303
  %141 = fadd contract float %140, %139
  %142 = load float, ptr addrspace(3) getelementptr inbounds (%"struct.cub::BlockReduce<float, 2048>::TempStorage", ptr addrspace(3) @_ZZ16add_rmsnormBlockILj2048Ef6__halfS0_EvPT1_S2_llllPKS1_llS4_llPKT2_mmfE12temp_storage, i32 0, i32 0, i32 0, i32 37), align 4, !tbaa !19, !noalias !303
  %143 = fadd contract float %142, %141
  %144 = load float, ptr addrspace(3) getelementptr inbounds (%"struct.cub::BlockReduce<float, 2048>::TempStorage", ptr addrspace(3) @_ZZ16add_rmsnormBlockILj2048Ef6__halfS0_EvPT1_S2_llllPKS1_llS4_llPKT2_mmfE12temp_storage, i32 0, i32 0, i32 0, i32 38), align 4, !tbaa !19, !noalias !303
  %145 = fadd contract float %144, %143
  %146 = load float, ptr addrspace(3) getelementptr inbounds (%"struct.cub::BlockReduce<float, 2048>::TempStorage", ptr addrspace(3) @_ZZ16add_rmsnormBlockILj2048Ef6__halfS0_EvPT1_S2_llllPKS1_llS4_llPKT2_mmfE12temp_storage, i32 0, i32 0, i32 0, i32 39), align 4, !tbaa !19, !noalias !303
  %147 = fadd contract float %146, %145
  br label %148

148:                                              ; preds = %85, %83
  %149 = phi float [ %147, %85 ], [ %78, %83 ]
  br i1 %84, label %165, label %201

.preheader:                                       ; preds = %16, %.preheader
  %150 = phi float [ %162, %.preheader ], [ 0.000000e+00, %16 ]
  %151 = phi i64 [ %163, %.preheader ], [ %39, %16 ]
  %152 = getelementptr inbounds %struct.__half, ptr addrspace(1) %29, i64 %151
  %153 = load half, ptr addrspace(1) %152, align 2, !tbaa.struct !24, !alias.scope !297, !noalias !304, !iluvatar.noclobber !18
  %154 = fpext half %153 to float
  %155 = getelementptr inbounds %struct.__half, ptr addrspace(1) %33, i64 %151
  %156 = load half, ptr addrspace(1) %155, align 2, !tbaa.struct !24, !alias.scope !299, !noalias !305, !iluvatar.noclobber !18
  %157 = fpext half %156 to float
  %158 = fadd contract float %154, %157
  %159 = fptrunc float %158 to half
  %160 = getelementptr inbounds %struct.__half, ptr addrspace(1) %37, i64 %151
  store half %159, ptr addrspace(1) %160, align 2, !tbaa !25, !alias.scope !295, !noalias !306
  %161 = fmul contract float %158, %158
  %162 = fadd contract float %150, %161
  %163 = add i64 %151, 2048
  %164 = icmp ult i64 %163, %14
  br i1 %164, label %.preheader, label %.loopexit3, !llvm.loop !307

165:                                              ; preds = %148
  %166 = uitofp i64 %14 to float
  %167 = fdiv contract float %149, %166
  %168 = fadd contract float %167, %15
  %169 = tail call float @llvm.fabs.f32(float %168)
  %170 = fcmp contract olt float %169, 0x3810000000000000
  %171 = fmul contract float %168, 0x4170000000000000
  %172 = select i1 %170, float %171, float %168
  %173 = bitcast float %172 to i32
  %174 = add i32 %173, -8388608
  %175 = icmp ult i32 %174, 2130706432
  br i1 %175, label %176, label %197

176:                                              ; preds = %165
  %177 = and i32 %173, 16777215
  %178 = or disjoint i32 %177, 1056964608
  %179 = bitcast i32 %178 to float
  %180 = sub nsw i32 %178, %173
  %181 = add nsw i32 %180, 201326592
  %182 = select i1 %170, i32 %181, i32 %180
  %183 = tail call contract noundef float @llvm.nvvm.rsqrt.approx.ftz.f(float noundef %179) #7
  %184 = fmul contract float %183, %183
  %185 = fneg contract float %184
  %186 = tail call float @llvm.fma.f32(float %183, float %183, float %185)
  %187 = fneg contract float %179
  %188 = tail call float @llvm.fma.f32(float %184, float %187, float 1.000000e+00)
  %189 = tail call float @llvm.fma.f32(float %186, float %187, float %188)
  %190 = tail call float @llvm.fma.f32(float %189, float 3.750000e-01, float 5.000000e-01)
  %191 = fmul contract float %183, %189
  %192 = tail call float @llvm.fma.f32(float %190, float %191, float %183)
  %193 = ashr i32 %182, 1
  %194 = bitcast float %192 to i32
  %195 = add i32 %193, %194
  %196 = bitcast i32 %195 to float
  br label %199

197:                                              ; preds = %165
  %198 = tail call contract noundef float @llvm.nvvm.rsqrt.approx.ftz.f(float noundef %172) #7
  br label %199

199:                                              ; preds = %197, %176
  %200 = phi float [ %196, %176 ], [ %198, %197 ]
  store float %200, ptr addrspace(3) @_ZZ16add_rmsnormBlockILj2048Ef6__halfS0_EvPT1_S2_llllPKS1_llS4_llPKT2_mmfE3rms, align 4, !tbaa !19, !noalias !303
  br label %201

201:                                              ; preds = %199, %148
  tail call void @llvm.bi.sl.barrier(), !noalias !303
  br i1 %40, label %202, label %.loopexit

202:                                              ; preds = %201
  %203 = load float, ptr addrspace(3) @_ZZ16add_rmsnormBlockILj2048Ef6__halfS0_EvPT1_S2_llllPKS1_llS4_llPKT2_mmfE3rms, align 4, !tbaa !19, !noalias !303
  %204 = xor i64 %39, -1
  %205 = add i64 %204, %14
  %206 = lshr i64 %205, 11
  %207 = add nuw nsw i64 %206, 1
  %208 = icmp ult i64 %205, 2048
  br i1 %208, label %.preheader4, label %209

209:                                              ; preds = %202
  %210 = and i64 %207, 18014398509481982
  %211 = shl i64 %210, 11
  %212 = insertelement <2 x float> poison, float %203, i64 0
  %213 = shufflevector <2 x float> %212, <2 x float> poison, <2 x i32> zeroinitializer
  br label %214

214:                                              ; preds = %214, %209
  %215 = phi i64 [ 0, %209 ], [ %240, %214 ]
